ccollections
Counter
p0
((dp1
VEnvironment Canada
p2
I29
sVTreasury Board of Canada Secretariat
p3
I4
sVCanadian International Development Agency
p4
I21
sVNatural Resources Canada
p5
I11
sVAgriculture and Agri-Food Canada
p6
I44
sVLibrary and Archives Canada
p7
I2
sVDepartment of Finance Canada
p8
I258
sVFisheries and Oceans Canada
p9
I10
stp10
Rp11
.