(lp0
V0cea6403-e1e0-4310-8bbe-2c4da95d1571
p1
aV8195c4e4-caba-4002-8ebe-2b4ce8d2c0e2
p2
aV9527e43d-69ad-4cea-8730-09f3a088972d
p3
aV73c42ea8-5784-4e4a-80ce-acd8691dfb5d
p4
aV3793c09a-48bc-4079-94c5-e03f48a73d37
p5
aV4348fa39-1838-49c8-b983-dac42ab4afc3
p6
aVa0bb9d6e-478d-41df-b2dd-2a9ec10bd339
p7
aVf405a6f7-defb-427f-a6cb-8ff5d3732605
p8
aV21a64237-f4fe-4de1-92e5-08997ae74b17
p9
aV2deba6ce-fbe2-4c99-bd67-2e42c0644b8d
p10
aVc59009d6-539b-47fc-97de-a61c2b9416f4
p11
aVfb296cc9-e655-4473-906f-f093806ff3c9
p12
aV2257488f-e228-452d-9ef6-a684a3baacb0
p13
aVed3e1328-812c-4a3c-a31e-08d5ecd716db
p14
aV194aa3b0-05ba-4a5e-a700-061754e0497d
p15
aV7ec8c8ea-8578-40aa-8661-f4a1e39ab2c7
p16
aVde5a9e79-9e42-42f3-8492-0d871e3dc1e8
p17
aVec344ea1-ca45-4ec0-af69-81da150a28f5
p18
aV6789e638-b705-41ea-b0ca-430311cd8469
p19
aV53753f06-8b28-42d7-89f7-04cd014323b0
p20
aVfd2d7ac0-ecdb-4f98-9102-738c43826658
p21
aVeb592806-fbc7-473e-b70e-2c3559beaab0
p22
aV98ee168e-dcae-47ff-b136-104f7af212e2
p23
aV132b1bc1-ee07-4082-ac6f-476315de1f1b
p24
aVfa5ad2aa-ab59-4421-8491-4c004d94d0bc
p25
aV52bb749a-4006-4253-a4a5-63e51d2f880f
p26
aV12c9de20-a9b6-4b6d-bf9a-090774ff2f46
p27
aVf5094aec-376b-495a-9fcc-424024e276fc
p28
aVe36f617d-f8b1-48a3-a42d-b6378aa4c683
p29
aVed421ac5-8fb8-41a1-93cf-32ba6edcb141
p30
aV145cbb68-bf2e-4155-a9da-c27fe60bbaea
p31
aVca074b22-8790-4f89-9417-b4c9d9fd406f
p32
aV1831b9e6-ed79-4fa8-92e4-42a5174be76e
p33
aV07461a1a-0f33-4408-b68d-9188134f46e3
p34
aVbb945396-a13d-49f4-870c-76752e3b9f78
p35
aVd290f05e-6bac-4224-9a03-bdeb93026198
p36
aVef546c83-43a8-4404-943e-ab324164eeb3
p37
aV8c9de07b-9ae0-41df-9895-6bb6d2f804ed
p38
aVe1091800-6f21-45e4-8bff-fb12bbc42ae2
p39
aVcaf8efad-1174-42f6-baa9-c4b753275ce5
p40
aV86a0937a-a1c5-48ee-82f0-5444984c440c
p41
aV3e784360-ca20-407c-b9bd-9d468f257eb5
p42
aV9ae96713-4330-4ef1-9c1b-aa05759d0dfd
p43
aVa4aa77e3-b7ed-45ea-8e89-d42f50a291a3
p44
aVd4a716f5-a2fc-4c3c-88ed-451fe05900e4
p45
aV2e652b23-4306-4d27-809a-7baf8448856f
p46
aVf5c8a5a0-354d-455a-99ab-8276aa38032e
p47
aV35779cd6-c5d0-4de6-bd1d-d5de027bd458
p48
aVca333ae8-5bcf-4e67-84fb-d436dbadce98
p49
aV824e8669-2e36-40c3-a2d4-f97ed54ce869
p50
aV50f23c85-6879-4b6b-8e44-3f96b9e486a1
p51
aVc20feef5-4b5e-416e-8f96-77354a81f3e0
p52
aVed3270e2-7949-430e-a4cb-e446d83d63b4
p53
aVf1b22bc7-467e-4f9d-a7b0-e6444391c321
p54
aV43584652-dd7c-4926-bd6c-1fb344da819a
p55
aVa507c844-7111-444c-bbd3-990368fd2410
p56
aV0a19a3d5-f967-47ec-b14c-ca14147dffe1
p57
aVeed1938d-90ee-42f6-8863-fc5a2c51e264
p58
aV4af67f68-ffcd-476a-956c-ad370d22e7cc
p59
aV29a3fd84-5a34-4255-93b9-22fb7fe0b84e
p60
aV12be0672-3968-4cc8-a603-013ca5a93bb9
p61
aV6f08e9d8-cbb9-4428-9512-106c15d5289e
p62
aV00cb41e1-9a97-4aba-b9b8-a8aaddef00ab
p63
aV5748d314-5b7a-4d93-a364-535ff716ff2c
p64
aV9caf35a1-f782-482a-80ed-18b3bdf86a43
p65
aV809ca694-22dc-4569-baaa-9339eb6a9837
p66
aV97028b79-c35e-4d22-98ae-adcb417cbbad
p67
aVe4897d94-151b-4978-9714-5bd034508af7
p68
aVc634685e-f771-4ca8-aeee-868e7c6bc2cf
p69
aV22546f7c-97e9-472e-979a-2c6551553ec1
p70
aV96c3fac7-df3f-4a95-bbde-ff755cb59af2
p71
aVb79d2426-28e5-47fb-b266-d9c78e2ca61c
p72
aVb5db506b-4ff3-4c67-b86e-64924a33edea
p73
aV0c428987-ce39-4af2-a1f9-917093000fb5
p74
aV5a4be8af-4325-4788-b9c9-a42b799dd72b
p75
aV317c9522-4566-4010-aeae-4ad4f3b6abf4
p76
aVd27f7eff-9fcd-49db-ad16-18bf47ced680
p77
aV490fc7fe-c66f-4c3b-8035-c84b711ed864
p78
aV163b94f7-c99e-41aa-9cd0-a23d3df8a0ad
p79
aV57f0b487-7a60-4c3a-be77-d1e188638a8b
p80
aVf51fdc64-7a8a-4229-9208-7af07a7b0495
p81
aV09494025-e5de-4ed9-9a74-c3a97fa12f1b
p82
aV2cb88a47-d7f0-480b-8be0-edf0ad8679ec
p83
aV00b120be-0497-4dcf-ba1c-b50bf381bfc5
p84
aV958a73d0-305e-45dc-8c9c-8ba2c8702957
p85
aVfd23697b-0647-48c0-bd71-3a76cf08e43a
p86
aVd025cf48-b16c-41c8-b7b4-f8948bda8a6f
p87
aV3ee04242-9be8-4990-a396-919fd1bf9fc9
p88
aVd11e0832-851b-4ce1-9931-9bb5700bb9b9
p89
aVf140622a-6e76-40ae-a0eb-fb160860fa79
p90
aV9db98f1f-4f33-4ccb-8ee6-8826845ce95a
p91
aV79d8e919-7b66-4aef-8e60-57ca83853513
p92
aVf11a079f-7a91-4b3a-9f0d-7d6ce1fa499c
p93
aV2dbf64b2-a2fb-4d36-a1ab-16d82672c19e
p94
aV6f438a3f-ba37-4ceb-9c6a-937a302c9a12
p95
aV686c54d5-b7f9-44b1-b94e-5d6594cf388b
p96
aVa4761636-95d3-4817-b2eb-1bf310d7091b
p97
aV615f94c8-8b71-4307-823c-72dac4e797f3
p98
aVa905ab85-bca2-4a24-8f3f-5b7c36fd5cf0
p99
aVa3fb5e82-2724-4ec4-808f-96f4d41d64ae
p100
aV5469429a-aec3-4832-a088-c51beb030516
p101
aV7679deea-33a7-4aa5-aa89-e6d0b6338618
p102
aVdbac3d15-855f-4efb-b5ef-0505690c403e
p103
aVaccb76ae-158d-4f2b-b03e-44eb2457f226
p104
aVe9aa9d53-aaba-43ca-940f-4e55c75563f3
p105
aV868cf339-db18-4500-9b1f-817684acab3b
p106
aVea146377-7ccd-4db1-b7e8-daeda70129c4
p107
aVba7aac51-4126-4869-b89e-a3f1e57be187
p108
aV453c2ee7-d9fa-4f7a-ae42-c7ba03be172d
p109
aV67d15eeb-9aa6-4fb2-afce-90d8d4d61d38
p110
aV08f20ceb-b97b-4487-949e-19253b3c1cb6
p111
aVd6b0286a-29d9-4df3-9130-d67b64f0439d
p112
aVa963ff79-cfdb-40aa-9694-fef8d29424ba
p113
aVcdb5af26-f2f7-43cc-9fcf-da916f14b473
p114
aV14c4aa90-f6d3-41d7-9c8c-c826dee589df
p115
aV2da1db44-d00f-4764-8524-d42e3b798ce0
p116
aVb4e2c9a1-15fc-4abb-91fb-30d327df3117
p117
aVd66391d6-4e74-4965-9af8-fe5bdd7a89d4
p118
aVb2df66b5-a57e-46b9-9b36-efd2980135d7
p119
aV90ae7a39-d91c-4df9-b8e9-34bc1b797e44
p120
aVfb86e69c-54cb-4777-872d-1bf1d545b4d0
p121
aV2d055a8a-505b-4ebf-a974-7d3381272aea
p122
aV1edb3aab-8826-4ce5-b9c3-99169ec13d4d
p123
aVff065ecd-53fd-4054-8112-a9561a22f9d6
p124
aV9383c7c6-7cae-47b2-9b13-08fa9497425f
p125
aV33619b45-e593-41b8-a5c3-db23effb59b1
p126
aVbf55e42a-63cb-4556-bfd8-44f26e5a36fe
p127
aV24027f6f-ff13-4096-93d6-fe152781a376
p128
aVe6037235-208a-4961-bcb6-cdc1965dfcd9
p129
aV1674baf5-6822-4788-afb3-f8659531d7c0
p130
aVe6f4231b-0544-422c-90b6-0ea79c464fab
p131
aV4dc89dfd-6075-416c-a2e9-59f392833cf0
p132
aVe7d07951-e9ec-4a8e-970f-298286da6bfd
p133
aV6af1adf8-2b73-4770-988c-ddcf07d4417c
p134
aVd1136fe2-f412-43cc-98d4-c90df98ba1bd
p135
a.