(lp0
V39c9685f-0b06-454d-91f1-9ce63a7b68d8
p1
aV49f4e44b-752d-48dd-8b05-c73f0a2f19e7
p2
aV9c4db504-145a-4f6f-8606-ac4513819566
p3
aV0c464366-2790-47eb-8a17-1934d638b8ec
p4
aV675e22f1-b27c-4a56-97d9-7ba4fbd11d37
p5
aV60a8e30c-cdb2-4a2e-bda7-ab727338bb4f
p6
aV7dfe75cd-9860-4ce9-b2c2-fe217bd85184
p7
aV35ee219c-a3b0-448b-a952-3e195cb40b70
p8
aV821ef476-d554-4bb4-bc32-bc916640fc9d
p9
aV46ddb3b0-b714-48cf-ae80-8a597d72eb96
p10
aVbfb7eb03-0ac6-47bc-a40d-750e1311e3ae
p11
aVcc2f27e3-b20f-4472-8a65-13bb7556a658
p12
aV515dbfa9-9069-4877-8fe8-177edaa4ca76
p13
aV5eeb7dc6-ad55-497a-af12-6e4526225804
p14
aV4b3d918f-3f73-4531-98b6-e096f74784f1
p15
aV7f6de627-7d07-44bb-8bc5-c2a16181904a
p16
aVa15a3c83-d94f-4709-94a0-f60cd7d0bfa1
p17
aV931c153f-3999-44cb-aeef-e50b66c97abe
p18
aV48f10fb9-78a2-43a9-92ab-354c28d30674
p19
aVa7b83060-1568-405d-98d2-814e22403fe2
p20
aVa60d8e24-7ca7-4f8a-80a0-797ece622fe3
p21
aV7dd6d99a-45b2-4047-8c22-096322c8c53b
p22
aV9ab0997a-16e3-4428-9dd3-7ce250c6b6c5
p23
aV3eb1ba1f-bb6a-44f4-8dcc-02df8895ff8a
p24
aV7d0f4a59-a71e-46f8-8dc0-cfb88ee62cc7
p25
aV20e7fff9-7290-4c13-b693-ae65d007de0d
p26
aVcec8549a-b420-48e3-95c5-140f36965e33
p27
aVd9844866-9ab9-447d-a1c8-b10cab99e5e7
p28
aV72a0f16f-625e-438e-8193-4bcd7e22e29a
p29
aV93b905a3-81ce-4514-bff4-379bd2e3fe61
p30
aV4d9fb2a3-a8b4-41a7-958a-5ec1330e5e08
p31
aVe6b2a318-9fa9-48b2-8f0a-be630a425751
p32
aVd30fe93c-eec4-4caa-94ab-98021d9fdec7
p33
aVcbc0fa64-5480-4cfe-aef0-9ab050882858
p34
aV82efb454-3241-4440-a5d4-8b03a42f4df8
p35
aVae607e9a-2fce-4ed9-83e3-ba4cdbc24b8d
p36
aV97adfa76-7eee-477b-b3d3-e430be7bd812
p37
aV084b8d63-88e2-4de4-b744-32f82b68bf34
p38
aVdcea0d6e-efea-42c8-a3cf-1e1ac382f708
p39
aV5260064f-9c38-4ef4-ad45-478f1a272f64
p40
aVf2daf428-9664-4ee5-ac91-f3036215049c
p41
aVbab06e04-e6d0-41f1-a595-6cff4d71bedf
p42
aV3b0f3bcc-d38f-468b-8776-12ffd7684d15
p43
aVcde5899d-7205-4d37-90dc-b0c37f848a88
p44
aVb750030a-8553-4e9f-af05-961db839df3a
p45
aVa0127cff-71e8-41c5-82fd-9d8f1dc868b1
p46
aV7441acba-ced5-4748-8fca-8a8a4dd2ddff
p47
aVd04f6b39-db0b-45db-a293-fcd68d96b25c
p48
aV9527e43d-69ad-4cea-8730-09f3a088972d
p49
aVbf149885-2c85-4163-bcf5-227d28b84092
p50
aV4e7a3b06-4015-4a15-ac6e-d54520cb13a6
p51
aVa5f6a2ec-7135-4205-a367-d31184472b2b
p52
aVfac4c175-38b3-4667-b1ca-f002382f9b78
p53
aV0cea6403-e1e0-4310-8bbe-2c4da95d1571
p54
aVbb36d6da-a97f-4f4b-a001-ecb03a8c3d51
p55
aVc19dfa14-5777-45eb-a54a-8644c71e137e
p56
aV696bd5a6-e47f-49bb-a687-7af296de1555
p57
aV1ad447fe-44b9-4108-a5d6-5a2801353e57
p58
aVa79e5af5-ef32-4b48-8851-32e4df3b802e
p59
aV5264138e-968b-4d1e-ac22-79fa0a7bd3c6
p60
aVab807d3f-9112-4d67-b17b-12bf83ff81e2
p61
aV8d640185-8995-4a8d-a914-da7d573a05e5
p62
aV040fd6b5-4235-4c30-8d78-cccf4ae58a85
p63
aVcaec84e1-f84f-4125-9554-46c7b89e9665
p64
aVa90a7879-1a9a-473a-88c3-6f7404d41ab7
p65
aVac5adc79-e46b-45c7-9acd-bc2ef694324c
p66
aVeaab20af-0b4f-469a-806e-2b9a050252bb
p67
aVce353ebe-1b33-4ab2-94cb-ad319b093bfb
p68
aV143d136f-3b24-408a-8188-e979cb775852
p69
aVc40fc4da-195d-4f26-84ef-9b7012c87d06
p70
aV3c10c922-3eb4-48ba-b00f-a95c09ca3ee0
p71
aV1c4496b5-738f-4c47-96e3-b5ce88cd3b48
p72
aV1d7583b6-70e9-49b4-82e4-4e4965ea0f31
p73
aV7dccb506-f372-4928-b485-1c6a22b2cc96
p74
aVf11f158a-2fd0-4429-8fed-ebfc692a7667
p75
aVdae78f43-beef-4023-9199-0fb2e2d39ebb
p76
aVd183788c-861d-445a-b261-a491b9010244
p77
aVf0cd8e90-3268-4c58-b43b-98ee71db9b21
p78
aV1daafccc-48b5-4a9e-a148-6cb0bfe2dcf8
p79
aV1633df33-b293-4dcf-a7af-b095e4d01291
p80
aV6269bee7-ff47-48b1-95a5-e5fc622636a2
p81
aVe7be7474-5573-4f44-a914-bc7f7ea1320d
p82
aV5055471a-a71a-4114-a874-112d61b8a68e
p83
aVd5d187d0-25aa-47b6-b729-26e8a0166683
p84
aV0e5aeca2-9fc9-4eec-978e-dc30130d35d6
p85
aVe741864c-8ebd-42c3-a3e0-534f5e619d4a
p86
aV8c229050-1a21-4369-aa73-056556e760e9
p87
aV6b5ad0b8-f419-45f7-b2c7-e1102b3dced8
p88
aV956113f7-17c0-435b-85fb-da837d0ca8b0
p89
aV1e363ce6-8af5-4b32-951a-5b4f7fb8fda0
p90
aV8f7d56c5-c7ad-4ca0-8a7f-b1e2d0d46e5b
p91
aV5be03a46-8504-40a7-a96c-af195bae0428
p92
aVa1361030-c554-4bf1-83fb-42392c03e1da
p93
aV5a439136-6250-4028-a217-8d2744f09e09
p94
aV72d2e2c0-1d13-489c-af34-93821109f7ed
p95
aV88889e3c-3497-4f1b-a8ab-b9343777dab3
p96
aVb4ed91ab-91a3-405a-950d-b2f604ed5022
p97
aV1146388b-a150-4e70-98ec-eb40cb9083c8
p98
aV06049b06-65b6-4881-9645-70aad03164b3
p99
aVb816343a-4925-497a-97da-9248d49ba98b
p100
aVfcd2dd20-4daa-48d6-b3dd-5eca561eaeae
p101
aV17ef49cd-d0e2-4945-98f6-9ed7e153b4b0
p102
aV49587670-ceb9-45b2-b693-34806e23b1b3
p103
aV59023294-5268-48fc-9426-514988757361
p104
aV448ec403-6635-456b-8ced-d3ac24143add
p105
aVeb1763a7-7f52-4821-a118-43bffc71f743
p106
aV2a33c158-ece9-42ee-b270-f9809d17c615
p107
aV574a3b14-a246-4fb1-90a0-ba3f106973d4
p108
aV03445110-e9d5-4c98-bbc6-a30101599d74
p109
aV982b9326-53f2-4f10-911c-38d336e3ec0b
p110
aV8195c4e4-caba-4002-8ebe-2b4ce8d2c0e2
p111
aV08909aad-65a3-43d4-8c49-77bf13d2d9d4
p112
aV0ffdcda6-7b93-411d-b7a4-69209ca7c568
p113
aV10cb8844-418f-4dda-99b2-c8a673148967
p114
aV9506291f-f6c1-4f3f-83d3-0bfe204c9115
p115
aVc3125e58-5920-45d3-be29-2f2e1f1dabc1
p116
aV0de78037-27c3-4844-b8f1-f9b70ea16b48
p117
aV69abc973-412b-4150-bd2f-3131186c4ee4
p118
aV3af7590f-2677-40af-b0b8-46289e7f82b3
p119
aVed55510d-ebf7-4c4d-93ac-7eec9138032c
p120
aVfd6787ca-6320-487a-bc6d-c20483c145b9
p121
aVbb74cfee-b1db-4fe2-9415-8472594ce61f
p122
aVef645765-08cc-4789-9c8a-ed224ef0a33a
p123
aV0b6b6299-fb02-4a80-9551-30fba7a7c228
p124
aV25f07616-759a-4851-8816-c69d4e672385
p125
aV59956438-2753-482b-965c-8512a79631f1
p126
aV84a8e4e7-018c-46d1-b68d-d882936d912c
p127
aV01158e5c-2e59-4018-8122-34b1c8895e3c
p128
aV4849013e-75ae-4669-839f-ba0b116d21fe
p129
aVd14af522-9f66-41ae-9a48-81a23b818f94
p130
aV5977e771-4ee5-4da9-8e3a-ebf19a6f2aa6
p131
aV73c42ea8-5784-4e4a-80ce-acd8691dfb5d
p132
aV8b577e89-8c56-4048-b4db-b9d5c753d419
p133
aV98390112-df60-479a-8068-baa9cbd56728
p134
aV4b91dadf-f774-46e8-8a33-35a4f4f887a1
p135
aV11ae36dc-842e-4eb7-a2d2-39b0b38bd867
p136
aV04b9be9d-dfdd-4bab-9c10-4ad90b056ca7
p137
aVda948165-5dd7-4366-b470-95617a9e2a56
p138
aV449c8301-65ae-4225-ac69-9a83d01b59ab
p139
aVe9a790f8-c2ab-44d0-bc69-8fc162b645f3
p140
aV1f3ed147-443c-447b-99af-26a0bb4aa290
p141
aV8e04e222-0543-4fa7-b490-9959353847f2
p142
aV329b93f4-6f93-49b2-82be-1e39f6c856b9
p143
aV1ebe93b1-2acc-49db-8141-2a42a028cbb2
p144
aV4e9fba0a-30f5-4dbf-9a54-ced15aaef740
p145
aVdb885de0-92b5-4c43-b307-13ecf9770f3e
p146
aVb064ae08-2383-40e8-98f8-67fd1ed34447
p147
aV38c6eca0-89d5-4f12-8ca1-3389e1f2755f
p148
aV2e8a5762-1f09-40c9-b163-8c86d29943c4
p149
aV4e92dbcf-87de-4101-81a9-a935537d4974
p150
aV92e3ad59-c7d3-4b79-ba90-5540a67a89a7
p151
aVe1f5053f-958a-462f-bbe1-66c14f315731
p152
aV99a10b24-b279-464a-81be-697f957a2a0d
p153
aV1a6c9395-0b8f-40b5-b0d9-ffc74619fd74
p154
aVc67feccc-1d86-4706-a321-a8ee1fcfa176
p155
aVab981f8d-39be-441d-8990-6a390c85ebf5
p156
aV118f5526-8206-4716-9b16-7f32dafea0a8
p157
aV0bf53138-3336-4e8d-b9d9-ff87c4b40888
p158
aV586077ad-452b-4b28-ad15-25a4f7f5b953
p159
aV3822480f-6203-4d0b-9ffc-32bc13ed8676
p160
aVc6c761e5-0760-45f0-805b-a88257c44e62
p161
aV8d0f0896-218b-4191-bd0a-449e9a886762
p162
aV50b1007e-b77a-4b8c-8856-f65504c59bf0
p163
aV0cb440d6-1f0e-469a-8128-5b83c12dab80
p164
aV59618ae5-c50b-4bdd-8c59-0e9e3ffa9ae8
p165
aVa0be21bb-647c-46c1-b032-647c0bd5e806
p166
aVad17c1fe-ae10-45c3-8e8d-2dd69cc55759
p167
aVa2d7073a-123e-45c5-a6d6-546d29ce14f3
p168
aV1a1fee0b-38fa-41c1-9a3c-1e069d7c6a04
p169
aV4dfed297-49ff-4c0d-9aa2-0572a95faf00
p170
aV39c9685f-0b06-454d-91f1-9ce63a7b68d8
p171
aV682a26e1-603b-433e-97ce-e91de7f85cec
p172
aV34c90781-488e-44a1-9201-9f9ff105334d
p173
aV15b394fd-6e06-4a68-9b18-335002e15568
p174
aVf619a17f-17cc-4821-8549-5e9cfeb93598
p175
aV70f37d7e-8ace-4ed6-9ce8-58afdd027c42
p176
aVea135e2d-87a3-4bf5-9ccb-4f7c2432b280
p177
aV5ace52b5-14fa-41fc-bd6a-6f0c130d279f
p178
aVb7ec245c-9302-440b-a742-23472663497d
p179
aV7e2e7c67-d6dc-4dbb-944e-a52dba5a1a89
p180
aV75307e34-ef6a-42f8-88b3-18c721935703
p181
aV48f544ed-e578-436c-8460-eacb64e61a9d
p182
aVc37c26a5-de43-4aab-bc77-1972e2a22380
p183
aV685efdff-995b-4a1f-899d-9b2fae142e90
p184
aVb59fdd53-d0f0-4eb4-9e91-d60ef9522bc8
p185
aV01c121d2-a4a3-4905-a2c9-691566ec42a8
p186
aV3686a05a-8acf-4b60-8dec-5f6ced29f89d
p187
aV39bcdfa6-ffd8-418d-9d48-b2832771cf66
p188
aV8f098802-cd07-4eca-98e6-2f31bc84038b
p189
aV040fd6b5-4235-4c30-8d78-cccf4ae58a85
p190
aV2b0fdd8f-ec28-4dec-b51f-f409cbf22f84
p191
aVbc48eaaf-d755-4818-9d0d-a90d95825582
p192
aVcdc6b95a-cf55-4a7d-a77f-fea5cbbf6d93
p193
aV2e8a5762-1f09-40c9-b163-8c86d29943c4
p194
aV6c2c4abd-d7d0-4e36-857c-8656b94c03fc
p195
aVfd6bdfb8-7157-4b39-9d31-523298a73675
p196
aV75bf95f4-9307-4c19-aab0-c7accb7631a5
p197
aVa45d8c97-775e-40ad-a169-d9b599ddf619
p198
aVbcdb6685-c1cf-4664-8b4e-63dc9e6921c5
p199
aV782276a4-5034-428d-8a73-b5facc740b85
p200
aV9d00ebdd-2f67-4ba9-af55-a18f67deb36b
p201
aV855c3d1c-203e-45be-b552-1d7531fabfbf
p202
aV48f10fb9-78a2-43a9-92ab-354c28d30674
p203
aV35b48157-1fd5-4fa3-869c-a67ccd9a8564
p204
aV201e596b-814e-425d-80af-61fac97deb7d
p205
aV478ef86b-d86f-4bc4-ba0c-c0b4852644e4
p206
aV8ca4788d-5ac2-40e5-a930-aae3fffafebf
p207
aV08714ca3-9006-40fe-83ff-c830833d5684
p208
aV3220763e-d537-481c-81fa-6dafa262ddb7
p209
aV1644b63b-c84b-4407-ae3a-9a8bb7573f58
p210
aVacab23c0-8936-4a8c-a1ef-13bc619390a1
p211
aVdcea0d6e-efea-42c8-a3cf-1e1ac382f708
p212
aVc53f2e79-bab5-48eb-b3e3-ea730a889673
p213
aV24d3cb71-2459-491a-8b98-f0e263a1fa4d
p214
aVfa5ad2aa-ab59-4421-8491-4c004d94d0bc
p215
aV07461a1a-0f33-4408-b68d-9188134f46e3
p216
aVb8df23da-1925-4a9a-99bc-3f99da83b2c2
p217
aV3eac6c30-4e06-4441-a84b-8019786ae69c
p218
aV1edb3aab-8826-4ce5-b9c3-99169ec13d4d
p219
aVd1136fe2-f412-43cc-98d4-c90df98ba1bd
p220
aV48c2bc61-72c8-401a-a8f7-207710f7b0cc
p221
aV7d226eef-b7bc-4f44-8828-13b70e33dd1d
p222
aVa289fd54-060c-4a96-9fcf-b1c6e706426f
p223
aV4dc89dfd-6075-416c-a2e9-59f392833cf0
p224
aVed421ac5-8fb8-41a1-93cf-32ba6edcb141
p225
aVa941f632-8d41-44e5-b34b-b48fe26b1db6
p226
aVef6aa6eb-8c38-4a54-b8cf-469f810605ba
p227
aVc38247aa-d704-4a2b-bd31-fe8bc7600744
p228
aV970e8958-2449-4abb-bc02-f78c6193d0fc
p229
aV12c9de20-a9b6-4b6d-bf9a-090774ff2f46
p230
aVd66391d6-4e74-4965-9af8-fe5bdd7a89d4
p231
aVff065ecd-53fd-4054-8112-a9561a22f9d6
p232
aV0b136335-539c-4e32-b998-587a22e9746a
p233
aV1674baf5-6822-4788-afb3-f8659531d7c0
p234
aV2d055a8a-505b-4ebf-a974-7d3381272aea
p235
aV76ad3bbc-67b7-4bb4-8ddc-c55f15f6c840
p236
aVd290f05e-6bac-4224-9a03-bdeb93026198
p237
aVf5094aec-376b-495a-9fcc-424024e276fc
p238
aV24027f6f-ff13-4096-93d6-fe152781a376
p239
aV145cbb68-bf2e-4155-a9da-c27fe60bbaea
p240
aV52bb749a-4006-4253-a4a5-63e51d2f880f
p241
aV284ca045-a352-4e3d-96f8-e72d82f7a45c
p242
aV98ee168e-dcae-47ff-b136-104f7af212e2
p243
aV132b1bc1-ee07-4082-ac6f-476315de1f1b
p244
aVe6f4231b-0544-422c-90b6-0ea79c464fab
p245
aVbf55e42a-63cb-4556-bfd8-44f26e5a36fe
p246
aVca074b22-8790-4f89-9417-b4c9d9fd406f
p247
aV9cbaef00-b52c-4a70-9fed-d9aa8263ab74
p248
aVe6037235-208a-4961-bcb6-cdc1965dfcd9
p249
aV6bac7d85-195c-4c82-9076-9d3cd00dafee
p250
aV33619b45-e593-41b8-a5c3-db23effb59b1
p251
aV1831b9e6-ed79-4fa8-92e4-42a5174be76e
p252
aV6af1adf8-2b73-4770-988c-ddcf07d4417c
p253
aVbb945396-a13d-49f4-870c-76752e3b9f78
p254
aV9383c7c6-7cae-47b2-9b13-08fa9497425f
p255
aVe7d07951-e9ec-4a8e-970f-298286da6bfd
p256
aV9e4f8e40-e390-46ee-8f34-a2719ca65f67
p257
aVef546c83-43a8-4404-943e-ab324164eeb3
p258
aVe36f617d-f8b1-48a3-a42d-b6378aa4c683
p259
aVf7f5d60d-6fd8-4592-97e8-12f23299f0f1
p260
aV4af67f68-ffcd-476a-956c-ad370d22e7cc
p261
aVf49f3f66-d798-4b1f-a48f-18695f877760
p262
aVfb86e69c-54cb-4777-872d-1bf1d545b4d0
p263
aV29a3fd84-5a34-4255-93b9-22fb7fe0b84e
p264
aVc20feef5-4b5e-416e-8f96-77354a81f3e0
p265
aVa507c844-7111-444c-bbd3-990368fd2410
p266
aV43584652-dd7c-4926-bd6c-1fb344da819a
p267
aV0a19a3d5-f967-47ec-b14c-ca14147dffe1
p268
aV50f23c85-6879-4b6b-8e44-3f96b9e486a1
p269
aVeed1938d-90ee-42f6-8863-fc5a2c51e264
p270
aV35779cd6-c5d0-4de6-bd1d-d5de027bd458
p271
aVca333ae8-5bcf-4e67-84fb-d436dbadce98
p272
aV90ae7a39-d91c-4df9-b8e9-34bc1b797e44
p273
aVb2df66b5-a57e-46b9-9b36-efd2980135d7
p274
aV824e8669-2e36-40c3-a2d4-f97ed54ce869
p275
aVf1b22bc7-467e-4f9d-a7b0-e6444391c321
p276
aVed3270e2-7949-430e-a4cb-e446d83d63b4
p277
aVf1269e23-ecfd-4ba1-999b-56a6b3805c01
p278
aVf064a144-b4e0-4e9b-9970-e0fc2f84d1a8
p279
aVfc7d7c62-8ce9-40c9-8d99-810c65febc2a
p280
aV23b85a02-a358-42b6-86c3-753b0355b616
p281
aVec344ea1-ca45-4ec0-af69-81da150a28f5
p282
aV194aa3b0-05ba-4a5e-a700-061754e0497d
p283
aVfb296cc9-e655-4473-906f-f093806ff3c9
p284
aVed3e1328-812c-4a3c-a31e-08d5ecd716db
p285
aV4348fa39-1838-49c8-b983-dac42ab4afc3
p286
aV21a64237-f4fe-4de1-92e5-08997ae74b17
p287
aV7ec8c8ea-8578-40aa-8661-f4a1e39ab2c7
p288
aV3793c09a-48bc-4079-94c5-e03f48a73d37
p289
aV2deba6ce-fbe2-4c99-bd67-2e42c0644b8d
p290
aV2257488f-e228-452d-9ef6-a684a3baacb0
p291
aVa0bb9d6e-478d-41df-b2dd-2a9ec10bd339
p292
aVf405a6f7-defb-427f-a6cb-8ff5d3732605
p293
aVc59009d6-539b-47fc-97de-a61c2b9416f4
p294
aVde5a9e79-9e42-42f3-8492-0d871e3dc1e8
p295
aV63e3ba45-010f-404a-a825-783b0aebdba4
p296
aV33948ddd-a7c5-42fc-b96d-a7b48a81a9ae
p297
aVa4aa77e3-b7ed-45ea-8e89-d42f50a291a3
p298
aV22546f7c-97e9-472e-979a-2c6551553ec1
p299
aVa21efa5a-8edd-4468-b94a-a60168dfaba1
p300
aV3e784360-ca20-407c-b9bd-9d468f257eb5
p301
aVea146377-7ccd-4db1-b7e8-daeda70129c4
p302
aV9caf35a1-f782-482a-80ed-18b3bdf86a43
p303
aV74ec533a-7489-402b-ac79-5ce605129270
p304
aVd4a716f5-a2fc-4c3c-88ed-451fe05900e4
p305
aVe418841e-d9dc-4caf-9a19-09b3269a3e1e
p306
aV5748d314-5b7a-4d93-a364-535ff716ff2c
p307
aVc634685e-f771-4ca8-aeee-868e7c6bc2cf
p308
aVa963ff79-cfdb-40aa-9694-fef8d29424ba
p309
aVe9aa9d53-aaba-43ca-940f-4e55c75563f3
p310
aVe4897d94-151b-4978-9714-5bd034508af7
p311
aV6f08e9d8-cbb9-4428-9512-106c15d5289e
p312
aV729e1368-c24c-4377-8764-85ef494e1f5f
p313
aV2da1db44-d00f-4764-8524-d42e3b798ce0
p314
aV00cb41e1-9a97-4aba-b9b8-a8aaddef00ab
p315
aVfc7d7c62-8ce9-40c9-8d99-810c65febc2a
p316
aV809ca694-22dc-4569-baaa-9339eb6a9837
p317
aVba7aac51-4126-4869-b89e-a3f1e57be187
p318
aV12be0672-3968-4cc8-a603-013ca5a93bb9
p319
aV97028b79-c35e-4d22-98ae-adcb417cbbad
p320
aV8c9de07b-9ae0-41df-9895-6bb6d2f804ed
p321
aV439c6c46-b602-4b01-9f21-e04bf55d7b93
p322
aVb79d2426-28e5-47fb-b266-d9c78e2ca61c
p323
aV96c3fac7-df3f-4a95-bbde-ff755cb59af2
p324
aV1fab2afd-4f3c-4922-a07e-58d7bed9dcfc
p325
aV47df994a-68c4-4c5a-9386-6b2b7603d376
p326
aV6212730a-035d-4d66-9538-0433aec48181
p327
aVabd67784-13e4-4349-b106-d0f9dc5ed855
p328
aVe7e33038-bb49-4b09-b808-802bf734241a
p329
aV6789e638-b705-41ea-b0ca-430311cd8469
p330
aV71bfc122-cd4c-4526-92e7-b5bd8572c3ab
p331
aV729e1368-c24c-4377-8764-85ef494e1f5f
p332
aV897e92f5-8b08-42bd-9766-0852be02e4ff
p333
aVe8ce6c20-a190-4c7b-87b0-24ec70171a0e
p334
aV8c9fdaf7-1039-40fa-8805-77f52905d300
p335
aV5a1060ae-d8d7-4eb8-8bda-4b6aa8139c5b
p336
aVfd2d7ac0-ecdb-4f98-9102-738c43826658
p337
aVeb8087b4-2390-474e-a0bb-a17501f21e8d
p338
aV9ae96713-4330-4ef1-9c1b-aa05759d0dfd
p339
aV86a0937a-a1c5-48ee-82f0-5444984c440c
p340
aVcaf8efad-1174-42f6-baa9-c4b753275ce5
p341
aV2e652b23-4306-4d27-809a-7baf8448856f
p342
aVe1091800-6f21-45e4-8bff-fb12bbc42ae2
p343
aVbb82855b-2c29-4c22-ae15-f3d809beb60a
p344
aV000e6c14-98d2-4460-bc38-3e02319f738e
p345
aV27155507-0644-4077-9a97-7b268dfd8e58
p346
aVcec27503-0540-4321-974f-d2dd6b646593
p347
aV23b85a02-a358-42b6-86c3-753b0355b616
p348
aVb24e34d0-2e2c-4d97-9022-6b00288213b3
p349
aV1e0ef582-0e77-47c9-83bc-ec31f404baf6
p350
aVcec843a2-b8cb-4168-81f1-e1ced9daf5da
p351
aVaba94801-fd1c-4897-a24f-64d4381c504a
p352
aV58613d1c-75c1-4524-b633-2f9a1904c04e
p353
aVa18ae796-8c1a-43a0-9201-c3b9b87edbb3
p354
aV69b19774-ca29-488f-a093-c8089265b75f
p355
aVe4a488df-d578-476c-9d3d-ad781556448f
p356
aV439c6c46-b602-4b01-9f21-e04bf55d7b93
p357
aVdc5116fb-dab1-4987-8889-6f05709d925c
p358
aV316cdc22-7b1c-4aa7-b841-9a2fe3314f67
p359
aV1e823172-c6c2-4434-b284-14e060cf14bc
p360
aVa289fd54-060c-4a96-9fcf-b1c6e706426f
p361
aV589ea7cc-ed35-4b3a-8d67-4d32d5083ba4
p362
aV9ba2034f-97a0-49d3-a7a1-1904924a7805
p363
aV573098c4-60d1-4f11-9046-681c219a4d0b
p364
aVaf113c94-fb91-4c22-bd70-f81f0dff227d
p365
aV043dca34-ded4-4367-9fd8-fb3370c7ee68
p366
aVac207bfa-5f30-440e-bfb3-2d0fc25aec30
p367
aVacd21aff-39a3-4591-9400-1e0729f457ef
p368
aV560bcb6e-ddf4-4445-a75d-ce3a7624f2a3
p369
aV79a52180-6cae-4b7c-bec1-96f02144a1ec
p370
aV4c90e70b-2f34-46e9-b87e-4c42c7c5837d
p371
aV86146b79-623e-4856-886b-0b03aa9b3f55
p372
aVf5ded3b0-a5b4-4599-95d6-d853a825792b
p373
aV1b219143-96ce-476d-a7f8-45c17b806fdc
p374
aVa5779b14-b9ed-44dd-afd0-9ac48c8655bd
p375
aVb98774e6-6221-4b43-99bc-a69f4e53542c
p376
aV5260064f-9c38-4ef4-ad45-478f1a272f64
p377
aV781f8781-f03a-43c5-9075-300b9d31308f
p378
aVaa72a5d5-380e-4e38-8740-42c3ad840fca
p379
aVf961a02b-0988-4e39-b360-2c347b73ef6b
p380
aV3c935cdc-1f53-49cf-a256-29db0c412878
p381
aV9c74c5fc-e515-4075-9271-7037b7525607
p382
aVc13195cf-3e18-488a-bc44-b8492197b583
p383
aV22546f7c-97e9-472e-979a-2c6551553ec1
p384
aVf064a144-b4e0-4e9b-9970-e0fc2f84d1a8
p385
aVe547539b-7fc6-4879-be54-3d1f80ac9e9e
p386
aV18beba2c-a820-47e8-bd31-f405db01ca1f
p387
aV6680a099-dd1c-437f-931c-1ff0187a1caa
p388
aV9caf35a1-f782-482a-80ed-18b3bdf86a43
p389
aV47b1052d-8676-4ecc-8faf-f3aa844d25ce
p390
aVfd2d7ac0-ecdb-4f98-9102-738c43826658
p391
aV77381606-95c0-411a-a7cd-eba5d038c1c4
p392
aV5748d314-5b7a-4d93-a364-535ff716ff2c
p393
aVc634685e-f771-4ca8-aeee-868e7c6bc2cf
p394
aVeb592806-fbc7-473e-b70e-2c3559beaab0
p395
aV0fe4c284-9291-4638-8db9-5cbc08b6888d
p396
aVe4897d94-151b-4978-9714-5bd034508af7
p397
aV00cb41e1-9a97-4aba-b9b8-a8aaddef00ab
p398
aVfc7d7c62-8ce9-40c9-8d99-810c65febc2a
p399
aV809ca694-22dc-4569-baaa-9339eb6a9837
p400
aV2abf6a97-6c0e-473e-9976-dfa9aba831bf
p401
aV12be0672-3968-4cc8-a603-013ca5a93bb9
p402
aVf8ec9eb8-62d1-487b-83ff-4c407b6cb227
p403
aV80a96113-1f7a-4718-92df-4832cd5eb2ba
p404
aVf5af8f9d-09bd-4788-8e06-617167403426
p405
aVb79d2426-28e5-47fb-b266-d9c78e2ca61c
p406
aV96c3fac7-df3f-4a95-bbde-ff755cb59af2
p407
aV1a8346eb-7ffe-44a9-beb1-d52f627d9fc5
p408
aV1fab2afd-4f3c-4922-a07e-58d7bed9dcfc
p409
aV729e1368-c24c-4377-8764-85ef494e1f5f
p410
aVfd2d7ac0-ecdb-4f98-9102-738c43826658
p411
aVffb9f4b4-f50e-47c3-b12a-66529cbaff12
p412
aVf79b3ec4-5b50-4ec1-894d-e9855148e55d
p413
aV193f3b62-6cc3-4e25-af05-c0dddaa50bad
p414
aV9529119f-f60a-46c1-aaac-f8a5d6745e14
p415
aV4af67f68-ffcd-476a-956c-ad370d22e7cc
p416
aVfb86e69c-54cb-4777-872d-1bf1d545b4d0
p417
aV29a3fd84-5a34-4255-93b9-22fb7fe0b84e
p418
aVc20feef5-4b5e-416e-8f96-77354a81f3e0
p419
aVa507c844-7111-444c-bbd3-990368fd2410
p420
aV43584652-dd7c-4926-bd6c-1fb344da819a
p421
aVeed1938d-90ee-42f6-8863-fc5a2c51e264
p422
aV35779cd6-c5d0-4de6-bd1d-d5de027bd458
p423
aVca333ae8-5bcf-4e67-84fb-d436dbadce98
p424
aV90ae7a39-d91c-4df9-b8e9-34bc1b797e44
p425
aVb2df66b5-a57e-46b9-9b36-efd2980135d7
p426
aV824e8669-2e36-40c3-a2d4-f97ed54ce869
p427
aVf1b22bc7-467e-4f9d-a7b0-e6444391c321
p428
aVed3270e2-7949-430e-a4cb-e446d83d63b4
p429
a.