(lp0
S'2b214f8f-bd88-4f3a-b775-ed24cf440115'
p1
aS'269bdce9-f598-43c8-8cf3-e0ba15c20f1f'
p2
aS'70355991-3fa5-4c28-8e72-bbda3e5da36e'
p3
aS'f818116c-a5ec-4590-b5f5-83f47fbe5add'
p4
aS'2dd1a680-4c73-442c-8a2f-32f07496972a'
p5
aS'87009320-6e76-439c-b737-0e9e6a36fa0d'
p6
aS'bcb7e946-94d3-4d9c-b39e-fb4f1c9a3196'
p7
aS'4348fa39-1838-49c8-b983-dac42ab4afc3'
p8
aS'a0bb9d6e-478d-41df-b2dd-2a9ec10bd339'
p9
aS'3793c09a-48bc-4079-94c5-e03f48a73d37'
p10
aS'f405a6f7-defb-427f-a6cb-8ff5d3732605'
p11
aS'21a64237-f4fe-4de1-92e5-08997ae74b17'
p12
aS'2deba6ce-fbe2-4c99-bd67-2e42c0644b8d'
p13
aS'c59009d6-539b-47fc-97de-a61c2b9416f4'
p14
aS'fb296cc9-e655-4473-906f-f093806ff3c9'
p15
aS'2257488f-e228-452d-9ef6-a684a3baacb0'
p16
aS'ed3e1328-812c-4a3c-a31e-08d5ecd716db'
p17
aS'194aa3b0-05ba-4a5e-a700-061754e0497d'
p18
aS'7ec8c8ea-8578-40aa-8661-f4a1e39ab2c7'
p19
aS'de5a9e79-9e42-42f3-8492-0d871e3dc1e8'
p20
aS'ec344ea1-ca45-4ec0-af69-81da150a28f5'
p21
aS'bf6f186b-3a13-4038-a829-f762c94d2765'
p22
aS'c279da5d-62f0-4942-bfc5-0a5b74f8df65'
p23
aS'06f5e364-6e2c-4d1c-95c2-9fb7d871ca20'
p24
aS'f34dcb32-4845-4e88-b125-5ac03c6e4a7f'
p25
aS'6789e638-b705-41ea-b0ca-430311cd8469'
p26
aS'53753f06-8b28-42d7-89f7-04cd014323b0'
p27
aS'95adb025-df39-4a74-b2d9-1e5bfb758201'
p28
aS'84de078c-c278-43ca-8217-14f4d2deb835'
p29
aS'c7affa02-e2c0-42cf-b78f-0dd12eb685d8'
p30
aS'83564003-c70c-4775-a774-ca4f070db422'
p31
aS'a42a7598-13c3-4226-be1d-499278a5b4a4'
p32
aS'c30e184d-8882-4085-8398-437369ed84c1'
p33
aS'20502beb-0349-4899-96b5-757fd97a2b12'
p34
aS'528b9df5-f583-4851-9306-f32806c1689b'
p35
aS'fd2d7ac0-ecdb-4f98-9102-738c43826658'
p36
aS'1cdcc939-5aff-45dc-8a5a-8ac17f5f2ab2'
p37
aS'10723cca-3b4b-4b9a-859d-c11c466898e8'
p38
aS'5748d314-5b7a-4d93-a364-535ff716ff2c'
p39
aS'9caf35a1-f782-482a-80ed-18b3bdf86a43'
p40
aS'eb592806-fbc7-473e-b70e-2c3559beaab0'
p41
aS'ac92b054-1602-4f21-a0d6-1a5e75270454'
p42
aS'03d8d9ac-3a11-4566-9922-0559167cccac'
p43
aS'981963a5-d771-4395-875e-86088073c8ef'
p44
aS'196ad7e2-9f7c-4d56-9795-5d7000cd13da'
p45
aS'6a6e6a79-9e2a-48cc-99ec-163da26d15e9'
p46
aS'06125ac3-1ec3-4aad-87bc-9361476911ca'
p47
aS'6eba10de-098f-4a75-b79f-6899c65054fb'
p48
aS'6bfd483c-2bc2-444f-b4ad-f80ccd5a37b1'
p49
aS'62f162ab-4034-4770-8e00-7353b5bf57f3'
p50
aS'9706712c-b34d-4b1f-adcd-b0808af26986'
p51
aS'23fc1d05-0b39-4aff-94d2-243b4450acf6'
p52
aS'de7defa9-2419-46c6-a23b-c97e7328fa89'
p53
aS'ae1cc823-983c-40eb-8ec9-d19ccbd31bad'
p54
aS'270643e1-d03f-4580-8108-44923c34e5d1'
p55
aS'514bbf4d-df92-484a-bc11-57393a5d9dab'
p56
aS'33d8def6-49ba-4b7c-928b-166b14fc15b6'
p57
aS'becd58f5-2751-4455-b3c2-21f5c3a923ae'
p58
aS'79e894ce-bfce-4df5-a204-9195e5a4193e'
p59
aS'd2fab74f-3c92-4f76-8676-c26a95f6c3a1'
p60
aS'005701dc-7acb-4258-8176-ad0eb8dcc5b0'
p61
aS'3afa796c-7e0c-48d1-9e08-90c9a1eaff8e'
p62
aS'af3dfb7d-09eb-4ac6-aae5-f839834ea249'
p63
aS'0ccdc12b-581a-4a0d-84b1-0a92d3cea67f'
p64
aS'1cfd8ff3-6d75-404c-a438-2fa7b2b58b20'
p65
aS'15834108-361e-40e4-89cc-b7dc23453a59'
p66
aS'4c968ec9-6fce-4c55-8ba2-01460ae85473'
p67
aS'dfba4540-8384-4dba-8632-4399696ff252'
p68
aS'710e2014-f80c-4c0d-bc30-318268f602ac'
p69
aS'0d3e604a-2039-40e4-b11a-17e842516416'
p70
aS'0bc711a2-ce9f-48ec-a799-459e83995204'
p71
aS'bcde1bf4-64cb-4068-b29f-2991a8d7777c'
p72
aS'd461859d-be58-485d-ad1f-4509fa43ded3'
p73
aS'5d277b3c-b1d3-4c21-9db8-0151934fc128'
p74
aS'b04b6ba0-3692-47ba-93ff-50ef8f39a2c3'
p75
aS'd3965af8-3392-41ac-8479-78eebd895622'
p76
aS'7aca3a35-fe8d-4d65-8fb9-b815145cc90d'
p77
aS'eba036a4-2a92-49ce-b9c8-bda1c42e18e2'
p78
aS'5d70bfbb-cd7e-4061-9541-1fba3cad3212'
p79
aS'60ac1dfd-e00e-481e-8a4a-f402048dfad4'
p80
aS'08255e56-2f21-434e-837d-a2c03bafe6a0'
p81
aS'3b4e2c3e-9719-4dbb-8113-21b569b04c96'
p82
aS'16c3fd56-4cf0-4a91-856b-80bbf261762e'
p83
aS'7af448a5-7e7d-458b-8f15-85ebf6d2847f'
p84
aS'607a3c90-cd33-443e-ba91-c2e97707341d'
p85
aS'1587723e-cb25-4020-95b1-bfd25ce1977a'
p86
aS'804e794f-4b58-4b05-9be5-36b3e598c599'
p87
aS'f673748b-11b0-40a0-a5b3-432e52ee2140'
p88
aS'c95c1627-ebf5-46cd-82bf-df3aad2068b1'
p89
aS'27d101a4-42bc-4fce-85e2-7c54931e2a2e'
p90
aS'71bc2144-adbe-4d3e-8850-171c32022b9d'
p91
aS'b35f74c5-c82e-4622-9947-8791678a5fcf'
p92
aS'33643163-9451-4d29-b947-afff56879160'
p93
aS'da14a896-d794-4cb0-b555-86a447865842'
p94
aS'99586c84-6023-46d6-817b-5096d66ad484'
p95
aS'1660e06e-576f-42be-b6e6-06b3a34b66ec'
p96
aS'abe03105-7823-4f24-8ce2-e5f86e9ba534'
p97
aS'2bb5350b-4c34-4013-87ce-d19bd8f5575f'
p98
aS'328c01d2-495b-4561-9f13-ea30647f1db5'
p99
aS'4f4952e4-a656-4710-bf47-cbf3a59c2de9'
p100
aS'5ff015e0-116b-40a6-b7cd-79b6a3a2d832'
p101
aS'50000641-fee8-4bf1-9fac-3fe5f443af75'
p102
aS'a58127c5-14f5-4750-9440-1c5c33e3db39'
p103
aS'99a09d92-4690-4971-a099-bfe428cbc402'
p104
aS'06c09a23-8e14-4815-b0e4-ef394b72f247'
p105
aS'02c30810-6b24-4af9-96eb-33c489ee90bc'
p106
aS'065f288a-f4aa-49ea-a2cf-2fb2dde78871'
p107
aS'f52ea401-3856-4192-bc0f-95b92af4767c'
p108
aS'cc644154-1592-44c2-81c4-5ba88ce87354'
p109
aS'5a93e305-b544-4d31-9491-7b50bed4a586'
p110
aS'028a11a4-c74a-4ded-8a4d-452076def73d'
p111
aS'17616f41-5c61-46c5-884d-063faff99e04'
p112
aS'6468f4a9-b736-4f67-bb87-51e6519f09d1'
p113
aS'118e433f-5fec-4866-8af3-09a440892696'
p114
aS'93a1b79e-5f7a-4aa5-ba13-983a8d6e2107'
p115
aS'4247313f-2d93-43e8-a78d-ec3a644f0cce'
p116
aS'38caacff-85a1-46f0-965b-6877e8b0bdf5'
p117
aS'5e5be19b-6eae-4f8c-9f46-f06655901f0f'
p118
aS'0a5b217e-2029-49c9-8400-22bcd518463b'
p119
aS'f8038ccf-4975-43b1-84b9-75f96085bb04'
p120
aS'45b6bf35-1acb-46b6-ab00-2978e9ed5025'
p121
aS'244341e7-be05-4fea-8b9b-4fa59d860035'
p122
aS'991ddee8-0d2a-4a73-9395-47ae758ec178'
p123
aS'5330554e-53d7-43ac-a1cc-b8e15b93dfc0'
p124
aS'a9a362dc-184d-4739-a2a1-4488fc42f49c'
p125
aS'c731846d-85ac-4b8f-bc19-d2740621638c'
p126
aS'83f2f006-eabc-47c7-af79-cbed995585bc'
p127
aS'bfe0f114-11c5-4cc4-ab4d-ec4238ffb08a'
p128
aS'6009eaff-a957-4574-8e37-3145d6a0b1e7'
p129
aS'9016be19-8132-4894-ab35-90bf0425f4d7'
p130
aS'962747c6-feda-4e22-aab5-af403a091081'
p131
aS'f5c06f60-1d31-4e1f-9d06-59abdef505fe'
p132
aS'090ea694-8bbc-4c0b-bcae-faba6b533580'
p133
aS'3ad19254-b67d-4fac-9cc2-1db4b2536141'
p134
aS'a812bce6-5c78-4c5e-b5ba-626bab91fe24'
p135
aS'50d4033d-45a7-47d1-af60-af60084831cc'
p136
aS'13fd0d33-b001-42e3-a156-59140c209eab'
p137
aS'ec88126e-fc0f-4120-b559-ddbca66431e1'
p138
aS'77e999bf-485f-49af-8a52-9f186743d2c6'
p139
aS'daffe8d4-70d1-4976-8467-ca1dabcd6e41'
p140
aS'cd3f40d9-b57a-4571-98fd-b90c3f2cf7e1'
p141
aS'57255a0f-e79a-4fb2-8a58-d902f8d7f7e4'
p142
aS'd639e712-1161-4413-9813-141f30969d24'
p143
aS'e83f5cc4-f583-4c5f-8889-da9907d9ef5b'
p144
aS'99d27654-c3f2-48f5-a053-7c772ae6563c'
p145
aS'91ce23f5-ecbf-48e8-8885-0c46904afaab'
p146
aS'5a04872f-c7c0-4c9f-a91c-0c0d590be32e'
p147
aS'2775ad9a-8a68-4455-bf88-7b05d7ef6f87'
p148
aS'5ed9ccd6-85cd-4d34-8921-3a6c7aea6f17'
p149
aS'15cb272f-c3c5-492c-b10e-53ef40c154c9'
p150
aS'a1643263-ccc7-4e79-9836-ccf1abb4911e'
p151
aS'7153dd88-5aae-4cf6-a8e6-047f9e4bbff0'
p152
aS'c5266375-2810-4e33-90d9-90c661348b08'
p153
aS'f3dc4914-e51a-40f2-a3d0-57a7a72d4923'
p154
aS'4a997d4a-3c68-4582-9291-cf5d683e3ccd'
p155
aS'a0c5af15-26fa-4aae-914e-77b53ffdecbb'
p156
aS'a931b903-23ee-4f55-b5d1-705783f683c6'
p157
aS'36b1c4b8-28b8-4607-a4b0-62e3428794b6'
p158
aS'd6d274a1-af65-42af-924d-74a135369f44'
p159
aS'98207cdb-5e69-4ad7-b902-a03e36378988'
p160
aS'0dbcd24b-29aa-4430-b722-ad289c23573d'
p161
aS'd0190588-1fc8-4e80-9847-56b164a0ce76'
p162
aS'1442b9a5-745a-4aa5-b2c7-391782b33be9'
p163
aS'8b14372c-54ac-4c2a-90b3-ffcffac7f141'
p164
aS'ae87f541-a23d-4940-b747-6d570c40f481'
p165
aS'cd96e704-6c24-4116-84df-41b3c45839bd'
p166
aS'a14422a9-cd2a-4356-93ba-09ec109df077'
p167
aS'61c65893-5b44-4c63-9310-396e226bf1fb'
p168
aS'dd9ff4f3-43e3-4cf9-9fa6-5ac3a81e7966'
p169
aS'8351c626-35d9-477d-a15e-333ed6e780bd'
p170
aS'68ef80d8-41ca-48de-9035-d6bf4cf1b477'
p171
aS'a4ca6240-51a0-49d9-b420-37b80e47e0d5'
p172
aS'b1353983-c479-49a7-8534-6a5d653b2a9a'
p173
aS'f15d746c-ceaf-4916-9345-22bb9b879394'
p174
aS'b0924f80-be32-4480-8595-c6cee940d47d'
p175
aS'7f343162-02d1-45cf-a0a7-15051be0955f'
p176
aS'79e23d9a-71a1-44b2-9a0d-dbdb3623dff1'
p177
aS'e3de72b5-3f33-44fc-b43a-0dfe10b1c7da'
p178
aS'13f5e054-87dc-4698-bec8-1507257accd4'
p179
aS'887d80f6-418d-4b61-b68d-b68e5478e922'
p180
aS'770ad87e-ab03-43a7-b873-b27c96d33395'
p181
aS'ff3fd207-539b-4dd4-9400-875831deb316'
p182
aS'2394e6d7-19de-4662-bd43-084daee1e054'
p183
aS'06fa03df-2f33-4ad1-9fa3-30ec96dd6753'
p184
aS'ddbff3fa-f65c-4726-b1ba-fa54b6cba1af'
p185
aS'39793bd7-ead4-445d-8dd9-0e53d8d55b50'
p186
aS'e74c6540-cc9e-486c-abc1-d631b8b7811d'
p187
aS'43be8c12-f7a7-455d-a356-5a9ec6519bce'
p188
aS'57d1e8bd-3874-44eb-bd41-88a92ab17f19'
p189
aS'f97db07b-a198-4ee8-9e5f-b058cd114cef'
p190
aS'22806de1-ddd3-4047-a674-9a50392524a3'
p191
aS'8544c922-1da5-44d5-9869-a3dfd52c0b45'
p192
aS'2f301d25-25e7-4871-9575-bf621b956ac4'
p193
aS'529a60b3-a719-4485-9001-a27f4fb65032'
p194
aS'a3f74c49-7819-4af4-b9fd-ac63c3db708f'
p195
aS'062480af-2e32-4f89-8d61-55160b8e3625'
p196
aS'6fa088ea-7d93-4f70-91c1-f51a59fc6cc7'
p197
aS'3884cd66-6d2b-410a-af64-7e75e89bdf1b'
p198
aS'99d6ff56-30d6-478b-af74-9a0348cddddb'
p199
a.