(lp0
Vdafb6413-5dab-45ca-bcd2-8c6ff4b67be5
p1
aVa15918d9-fcf7-4e62-a983-e5965400abd0
p2
aV26ca2ddc-6aaf-4d96-9dc0-26757f9c8a0d
p3
aV9e4f8e40-e390-46ee-8f34-a2719ca65f67
p4
aV7606bc7b-c032-4b57-8706-02ecb71ac7d0
p5
aVdab5596d-dcd3-48e3-8594-b129dc68d5c6
p6
aV8c8dbf45-e706-4120-be22-4aef7635fce5
p7
aV7d226eef-b7bc-4f44-8828-13b70e33dd1d
p8
aVbe106be3-5ee0-42f1-8e56-f38a21c5297e
p9
aV8b5d3d07-e00c-4b69-9046-8a2de8450777
p10
aV145a12e9-83f9-4c81-a68a-c213e9a3c05e
p11
aV249688da-769c-49dc-b0b9-449b8e0666db
p12
aV6c19a1c5-a173-463b-a7bd-817c2d35802c
p13
aVbbef9e90-e622-44c7-aa90-a635f5e422a0
p14
aV6bac7d85-195c-4c82-9076-9d3cd00dafee
p15
aV30582c5a-f9d7-4932-ada1-dae4ea4a58e2
p16
aV17c6703f-be6a-42cc-9817-e9779eeba352
p17
aV9a0208f1-dbad-4700-af24-fc8886206b96
p18
aVaa73f174-1fab-4ac7-bc19-79d972044b05
p19
aVb4670f58-8bed-44f5-b41a-b96516cefb8f
p20
aVc20c8d52-4a05-43e0-8075-609cb8dcd85c
p21
aV653e3ade-56a2-489c-97c9-1f7d930cedba
p22
aV0f1f9599-5057-40d5-b003-8761e85bccc1
p23
aVdfb9b20e-c014-4601-9a3b-19a688b203a9
p24
aV602dd153-b61c-46dc-91b2-89cd5b8f8e45
p25
aV53390d03-5a71-40e9-8fa9-4d0572b4cf45
p26
aV97215cfe-504a-4bde-b211-d194751e742a
p27
aVb8df23da-1925-4a9a-99bc-3f99da83b2c2
p28
aV8bf5752a-fd2b-4999-bb65-1182d6f20f2a
p29
aV6e7fb3cf-c3e8-491b-9628-461c2f5aa0be
p30
aVd5024e6d-f261-4acb-abdb-636a9cae5de4
p31
aVa941f632-8d41-44e5-b34b-b48fe26b1db6
p32
aV5a891037-1c83-4483-9137-5e980c8a23b6
p33
aVadfa15c1-7238-4967-be00-1524bbf66b60
p34
aVee82dff4-8668-470b-8c7d-0de51b338994
p35
aV3f66f90d-90f8-4aec-b369-e744073788ae
p36
aV4d75cf10-92a4-4cb5-8838-a5b745c18359
p37
aV15f677ee-eb80-40f7-b323-c530dae84f18
p38
aV72d5dd81-1c4c-4d31-ad56-8522c6f161aa
p39
aV48c2bc61-72c8-401a-a8f7-207710f7b0cc
p40
aV76f4fbaf-5daf-4006-b3fe-915fae43d589
p41
aVfbd347fe-acb5-4930-95b8-7daf5940e519
p42
aVb3e6feb8-43cd-4a05-8c10-458639d96e51
p43
aV8cb47266-ce22-43eb-81c3-13c6d0f46d6b
p44
aVd4d5fd46-64e8-4acd-b95c-69bfcd99fef6
p45
aV1b404660-a745-4e40-8bf9-7c0df298fc67
p46
aVe1a3bc45-5bae-4bd9-806e-840841c0ba32
p47
aV369865c9-949c-4647-b1f2-822339ba0890
p48
aV47d7de89-e60d-4e2c-a8da-5d6ba70625af
p49
aVee84c92e-f1e3-4ca1-908b-b9c600bc866f
p50
aVdd84f712-953a-4455-85e9-422c540d33b1
p51
aV86b4e601-8c66-4baa-9257-205e5a864239
p52
aVc38247aa-d704-4a2b-bd31-fe8bc7600744
p53
aVfb89b81f-d64f-4e9b-9464-f1edeb35020e
p54
aV64b450ef-7e30-453f-b245-fbab235d48cf
p55
aV06201991-4f6e-4404-b417-ae83b94e7dc7
p56
aV02071857-fbc4-42e8-adeb-0d0f9b3b562d
p57
aV99d27654-c3f2-48f5-a053-7c772ae6563c
p58
aV632cef40-9de6-47e5-9d16-744d32fc4f0e
p59
a.