(lp0
V001ea2e3-5f5c-4d3d-8298-bf3666d1cf57
p1
aV002cbaf8-b7c0-47ce-842a-4c8dfd257128
p2
aV0058c578-74d1-48f8-8f54-eabfd4fe74a4
p3
aV0077ede2-9a7f-4366-8c69-c9d42fc91f04
p4
aV00a7f073-672f-4f42-8549-0ab067bbd4f7
p5
aV00bee679-d4eb-4754-8523-0f7821713fa9
p6
aV00c4027f-5821-4a5b-821b-c4cc8ca5d761
p7
aV00cce0d3-9016-4f27-8144-55153718630b
p8
aV00de4e06-0319-4b9b-809e-decf45bf3add
p9
aV00e5ba3d-d1a6-4f2c-8994-bb5d02a43d29
p10
aV00f548fa-7adf-4997-8fad-26b3ffc80f2f
p11
aV01053619-81aa-4ac4-8887-a61e1cd0d8c7
p12
aV014e28fe-b7a7-4975-838d-138b446b1796
p13
aV014ee5cd-27ab-432f-8cca-ef877abaaa9b
p14
aV01610354-bb24-466a-8561-bf62193610f0
p15
aV016692ed-3613-4537-8b70-1413726c77f3
p16
aV017211a1-6159-4f9f-8160-1d292f94263a
p17
aV019f6dff-7c65-4ce0-8c4b-5212857ed791
p18
aV01aae164-56d5-4c0d-8374-f61205867dff
p19
aV01b33181-781a-4fc2-87ed-dd9131d07bf4
p20
aV01e0c464-e5c2-45e1-871b-1133c51a3609
p21
aV01f276fc-bc9d-431e-8b01-c2b344ad71a2
p22
aV02019f49-c3f2-4a22-85c5-ffbb19057414
p23
aV020abd9e-5849-4747-852e-7f99085b631a
p24
aV020fecd6-7cf7-4633-8324-f320612cdd07
p25
aV02336869-2145-438e-88a6-13dddf5a7b65
p26
aV02450276-739b-414e-8cba-01beb7ee109a
p27
aV02570440-d273-4152-8e7b-71dc76077fcd
p28
aV02818e19-aa94-47d6-87a7-93112a968414
p29
aV02900afe-8d72-4df2-8692-88c9533e42e2
p30
aV02a00fac-875c-4158-83e8-3d32e7305639
p31
aV02a4fdb4-3888-44e7-8307-06ca50ae477e
p32
aV02b3c047-9934-4920-87a3-23ff7ebc8ef9
p33
aV02b85c4d-ff27-4130-8b96-0b122529a979
p34
aV02bbd260-784d-4907-8bc4-de5a13852337
p35
aV02d03f63-3ef1-496d-8fee-037a9549f57d
p36
aV02da7624-ac83-4f35-828f-39b8ff09e545
p37
aV02daa14a-0763-4dcd-82b7-9140e41249f8
p38
aV02e26d6f-00d8-4c68-8ded-74007b104300
p39
aV02ef73cc-abdc-490f-80e1-00cae1d57c6a
p40
aV030cc934-59c2-4f24-80c1-3726abe32e79
p41
aV0320a03d-a281-46f4-8165-d2cc52c3850c
p42
aV033addbe-ca43-4bd5-85a7-354f0f09d961
p43
aV034ff3d4-9031-4be1-8f07-472c5270f942
p44
aV0361b64b-3808-4f12-8a13-5b7bff64f27c
p45
aV036f8a3b-1046-454a-8e3a-56c6c991ae2b
p46
aV037ad309-9df9-40df-8a6f-ff09dee29b75
p47
aV03b537cc-46c8-45c0-8cbb-4c889622bd39
p48
aV03cf7d5a-f524-4af6-84f4-221a69bc71cb
p49
aV03d32cbe-6698-4149-8dd9-39fef2ae81f3
p50
aV03df902c-4268-4f38-8d58-6f448ec92b09
p51
aV042bc176-7c79-48ba-8422-4fe2efa5b980
p52
aV04706a52-b413-4b59-8dbf-8f6cc856dfed
p53
aV04974cf8-2832-420d-8782-b1be3fdd899d
p54
aV04a8bd78-8753-47b1-8ae2-db5360efa312
p55
aV04bdb1c6-69fa-47e3-86ec-4e7d414bc476
p56
aV04cd035e-2700-471a-8b76-f0fcf4a77fe2
p57
aV05058b00-f852-447f-821f-c1a24115702e
p58
aV05156b83-1af0-4e05-8c28-db968721cc26
p59
aV05387772-6b94-4c48-87ff-995c5ba745d1
p60
aV0552c2c2-e41e-4af2-87a7-40938084682e
p61
aV0552c5c1-2f73-455c-84f4-479361ba4f9f
p62
aV0562b7b9-c7e0-452e-8b33-420b7263ad02
p63
aV058c7fe1-7bea-4091-819b-04a93c827c9b
p64
aV059242e0-575b-43a5-8b4a-66679ee6943a
p65
aV059a93e6-17b8-4b3e-8330-6dfd35493ac1
p66
aV05f9c301-74e7-4cbf-8047-72b7e21361cc
p67
aV05fe9b58-fc27-4711-8250-8ec6abe0b187
p68
aV060c4a88-0a75-4af3-8fd9-31ae156a06f4
p69
aV06172e99-5663-4222-8810-758014b1dc4e
p70
aV06319a78-f46b-4e2a-8f04-a59dd1381a49
p71
aV0633718d-6e77-47b9-85a2-df4776fb575c
p72
aV066d20b2-22af-4e27-8ad6-8b25c9e95ca6
p73
aV067c98c7-d206-43b6-8286-4347e2baca8a
p74
aV0692b9fe-08f4-4768-8e69-a06ca553ed0f
p75
aV06931999-d057-4906-8113-2d21f0ee35f5
p76
aV069d20f6-729d-47c3-8ee2-54b1e822e8da
p77
aV06a3d096-e905-41df-818e-2b05a00dfa2a
p78
aV06abd577-45d4-4c41-876c-41f66221eebc
p79
aV06af5f25-3a49-4b81-88dd-995e3143ea9d
p80
aV06b1b1c1-d759-4612-82de-533b43b49a1a
p81
aV06cbd7c9-86d5-4961-8642-48ffec4e005b
p82
aV06cd368b-2331-4d87-8c03-2f5cf808e594
p83
aV06d203ad-0841-4aae-8dff-5f95d0908e10
p84
aV06d699a0-4e86-4b0d-8356-0d2ceba7feae
p85
aV06e1c01e-27de-4a4f-843c-a2a1d60adcaf
p86
aV070f62f2-351e-4532-87f7-668b72fe73c8
p87
aV074bd8d0-2309-49d0-8cb1-e9e4eadfcf8d
p88
aV07598aaa-4649-4a0b-825d-60740d69169d
p89
aV075c2a81-42b9-4110-89eb-d7cfacf554ef
p90
aV075f7ec7-5312-4d2a-8ea4-41ecc344f3eb
p91
aV0767d220-9e3b-4852-81ea-77e84df6af5e
p92
aV07a6a5a9-b38d-4568-85a7-712824575d30
p93
aV07f6b915-aa1d-48bd-881b-5cea23f5a21d
p94
aV0800f623-40a3-49d3-86e2-05ee0bac5e52
p95
aV08050d12-75d4-42b9-81a9-e1d133b7b618
p96
aV08077f7e-0f34-486f-8aa3-f4feb7b8ad2d
p97
aV080e8518-0f49-4703-820d-33ceeb5f7104
p98
aV0851749e-7623-420f-8b81-2fa3128c982f
p99
aV085e5d0f-c8ba-4557-8ada-63952747f21d
p100
aV0878525c-4bcd-468c-860d-e6fc89e6446c
p101
aV08a5b2f3-2c6f-4267-8c77-4381e7b89ecf
p102
aV08af5d2b-2ab0-4adb-8810-17a3a2bb74ea
p103
aV08bd92f4-2aba-497f-88c6-6b1710314d6e
p104
aV08d09169-25ab-473f-84a7-7c2f6642bd0d
p105
aV08e50421-272f-4994-8006-48a417c49eab
p106
aV08f1ba38-877b-4445-8595-aa02bb7f618c
p107
aV08fafb28-8c9e-4aff-898f-a2de1e80ca49
p108
aV091df42f-1086-4c0b-89cf-cd399d1a9fde
p109
aV092ef368-4e3e-484f-82c9-3b38a9a83c4a
p110
aV0941f62e-5eb7-4c59-8880-07cfe0ffce9f
p111
aV0948997d-6733-4759-87eb-79028f44ecc4
p112
aV0951b3d4-00a7-4820-8bbb-397fac55cb41
p113
aV0988e64c-b16c-4a38-81f6-fd4baa5cdc72
p114
aV09ae2392-ede2-4e60-8bc3-429e1b353778
p115
aV09b7368f-c5ec-406e-801d-3bf4ca6f39f2
p116
aV09c61130-ca4e-4a94-8eaa-8e4172e12775
p117
aV09ca560e-e94f-4ffd-8da5-f80269629048
p118
aV09d6d349-e2a9-4c10-831d-7b88ff18f67d
p119
aV09dad241-75db-4837-8e4e-17f627caeba9
p120
aV09e21587-b3fe-47b7-825c-3293265d07f6
p121
aV09e2ef39-d33b-4298-894c-5962675b094a
p122
aV09ed5aba-b0ee-45d7-8c53-b6159d6ec14f
p123
aV09ef3257-12c1-42ea-813b-92eea1fac037
p124
aV09f5cad0-104b-4e0b-8834-eb261f3ce9c7
p125
aV0a1a7132-77c5-4c8f-8153-124abd5e7522
p126
aV0a1e1e2c-a65a-4c92-8ff3-d0791bbdcf97
p127
aV0a349566-74fc-4f27-8ff9-9f449c2d7c30
p128
aV0a3cf622-ceb7-44f5-8a4c-d36f9eb06ecc
p129
aV0a4f7f65-6c49-40a8-8d39-c2e24a25e8f0
p130
aV0a514ecd-1ecc-499a-865f-1b95216a0b34
p131
aV0a5527ca-d98a-4204-85f8-b3241751c26f
p132
aV0a6026f4-c14c-4f28-8028-a30364ab084e
p133
aV0a69e378-54b3-43e2-8089-55c129c42aea
p134
aV0abaac7c-0103-4284-8e59-a3e98ae861a4
p135
aV0ac95b32-c638-4c5d-85f0-6c2146937108
p136
aV0adec0a3-8018-41ee-8dc1-b55d6f63b71b
p137
aV0b031205-f8d0-48a5-8974-7351d1d7eba9
p138
aV0b0a71b1-73ac-4ae8-82b9-7b610f39a77d
p139
aV0b0facb0-c10f-4f0d-8685-ab52053cb923
p140
aV0b22c886-f0e1-40e9-8437-8e407384fbb7
p141
aV0b308ad4-2326-4e76-8347-8b3333c0c456
p142
aV0b49e435-07b3-4ce9-87f3-12edc164a1a6
p143
aV0b59a912-aa37-471d-8b69-ecfbd60f6ae8
p144
aV0b772f97-854e-4a92-8632-16c094d5993f
p145
aV0b87a7e9-9986-4887-82cd-a5bbbc1fda35
p146
aV0b9ad35e-2075-44b3-8481-389f4000848b
p147
aV0ba41188-6abc-4a8f-8407-83ed8b5482c8
p148
aV0bab38d4-f5e8-4275-8494-f364a88b430d
p149
aV0bad5e72-e127-44cb-88b1-7206069a1cbd
p150
aV0bbda42a-b390-4442-882e-0523eb587761
p151
aV0bcd1325-8e47-4117-8d28-5ebcd7570de9
p152
aV0bd1be78-7628-490f-866e-3d4ed0a153e8
p153
aV0c03a7f7-4d35-429d-8439-c1e370b65c29
p154
aV0c30228d-2341-473f-8b3a-ae4951f363a7
p155
aV0c4ac76e-0eae-45e4-8609-0760b8b20e9b
p156
aV0c5860d9-8ae0-479e-8c89-b787855106f3
p157
aV0c7d0b05-deff-4317-8f62-2f73f8c7a346
p158
aV0cc072b6-66bf-4114-8c56-3feedb366689
p159
aV0ccdd3d7-6459-488e-890e-79a1e4467e60
p160
aV0cdc544d-0069-4695-87d5-d97faff518d9
p161
aV0ce1000b-aab0-4978-8df7-ef4e982a37f8
p162
aV0cea6403-e1e0-4310-8bbe-2c4da95d1571
p163
aV0cedd6d5-a7fa-42d7-8418-1aa9e90e5cb2
p164
aV0d49ad39-ea93-40ff-8c40-f333450b960b
p165
aV0d53a465-45cc-4412-8d1f-1094f6aadeb0
p166
aV0d57c3fa-62d7-4ca5-844f-5a2be58da74a
p167
aV0d6b3687-bd8c-4a04-8caf-64ad0d8dd89f
p168
aV0d7cd240-b193-4e37-89b0-0eab4043f55b
p169
aV0da97ed1-4916-4bc4-808a-2ecfc5862917
p170
aV0daf981d-4dd1-441c-8d53-7cb5117e31da
p171
aV0db0dfa2-fcd4-45e8-8be1-8105bcc5a53e
p172
aV0dbc06aa-8011-4b18-8655-0e57d0dee75d
p173
aV0dc415f6-f455-40e2-8702-62f7a35cc59c
p174
aV0dd0058a-9047-4a14-8b63-615b58e73f7e
p175
aV0de078f3-c18a-48cf-8d61-2a72ced95759
p176
aV0e0597ad-12c9-4a7b-8d81-89e902d2214b
p177
aV0e0e21cd-d950-498d-814d-2457ef13aaa1
p178
aV0e18d8e4-7494-41ee-8152-c7fc9d8d32eb
p179
aV0e2ac583-38cc-40b7-8011-e986c8ebd6f8
p180
aV0e4912bf-1a8f-46af-89f3-21ca2386968a
p181
aV0e4bf07c-5ac3-4c2d-8d52-d7b9e9ad98c6
p182
aV0e627077-f6b6-4e9e-8cfd-132c508b0920
p183
aV0e64cc72-5e8f-4a52-87ee-b207cd35a134
p184
aV0e6ff95e-ce5d-41d8-82d1-de0ec3c62872
p185
aV0e717d9c-47cf-446a-8423-9a004c339c63
p186
aV0e8087c4-0794-492b-8d15-70e43bb02f4e
p187
aV0e8f46e7-ca39-4ec0-8384-71b87d784461
p188
aV0e92ec55-636e-4af8-87ca-ed2e7a92da7a
p189
aV0e9efe3f-ff31-4399-8d62-9588c5dae8ef
p190
aV0e9f40e7-789a-44c3-8d56-f2716a893437
p191
aV0ea900d2-6d73-425b-87b8-c2946587de07
p192
aV0ecd0689-e1ba-42e2-8b94-6a695c0b5c90
p193
aV0ee17b17-a0af-4a2f-8f62-0dfabd4c80b9
p194
aV0ef8d998-a993-4879-82ef-8db45e4b50a8
p195
aV0eff24a4-d3a3-4821-8921-73c53b3cfe3c
p196
aV0f0f1f90-1f2d-41eb-8a67-46e97d5a9199
p197
aV0f193ae3-b1b7-4653-8c38-ee89e5e3dfeb
p198
aV0f222a07-f13d-4ea1-8220-f7780613b439
p199
aV0f507f00-6b05-49ed-8d2d-d22e1c86480d
p200
aV0f54ffa1-8423-4f63-882f-8ef8cf53bb9c
p201
aV0f580db4-58d8-45ac-8219-cd80c91c529a
p202
aV0f5b0a42-5f96-40ce-8d3f-4bae13261a63
p203
aV0f5d7ecc-d7ef-43db-8226-ee2dfc8f89e5
p204
aV0f5ede14-cdd6-493c-85c5-78288527babc
p205
aV0f609e5e-befd-444a-8b68-dc94e0f9d419
p206
aV0f7b7d38-fe94-4394-882c-79a25ad0518b
p207
aV0f8b2ef3-1a73-40af-8657-c72200d9f44e
p208
aV0fab0e4c-c499-48b4-8c0f-11f2e568928e
p209
aV0fbf56d1-5973-4e92-86bb-150a4bfa80c0
p210
aV0fe5ffc6-5cbe-4669-8f25-81f20ceee12a
p211
aV0fef7e15-3a3f-4159-8644-98134fc66eee
p212
aV0ff0c675-3ae3-4904-811e-423f6e0ea714
p213
aV10053616-ff5a-462f-8938-56451d5bd5d2
p214
aV100d49d0-7e98-4fa5-8788-d3b3f2523df6
p215
aV101e1a18-a760-455a-8c33-606ed196f052
p216
aV103b6103-681a-4680-8de7-bb2d5e770bb1
p217
aV103e47e5-8f4b-4aac-86d7-a76dc4c42ebf
p218
aV104cba34-01b7-497c-861d-087a4766f113
p219
aV1055dc9c-73da-4caa-8854-205454eaa596
p220
aV106e4312-f4dc-4c14-892a-c028551c80c3
p221
aV107779c1-ad70-48f6-82d6-51cd704fa74f
p222
aV10951503-c95e-4707-81de-194d3316da5b
p223
aV10a92db8-3fe8-4054-8309-49db144947ae
p224
aV10a9fd35-2bdf-43bc-8f28-0c0f92170f06
p225
aV10af73c0-67d1-4266-8dd5-8130b6101e8a
p226
aV10e02dd3-6ca6-42bb-8085-57f523754bb3
p227
aV10e4d550-a254-4756-8906-d0672b6d4c8e
p228
aV10e67ba6-2bd8-4ce8-8bdc-6f6212eed8fa
p229
aV10e80480-3eb8-47e0-838c-614a9a254f7e
p230
aV10f7de9e-ef5e-45c3-8d78-e6dd8bde5158
p231
aV11028f9e-df3d-416c-8008-cfc84fd82e1b
p232
aV110acc1c-27d7-415b-85d7-38aba1c27e75
p233
aV1111ab1b-b117-4453-8f4a-d0d39765ae57
p234
aV1119ab8b-5c9f-48de-8662-79e80f4639bc
p235
aV1123a724-2dc1-4571-84cb-524f1d86eb9a
p236
aV11373000-cbf2-4470-8b46-aad42e948872
p237
aV11561091-718f-4edd-8ccb-732525a8d124
p238
aV11601558-9ee8-484c-844e-fc2969a45559
p239
aV116bb51a-80d9-4ade-8394-74e3301a093d
p240
aV117db0d6-6280-4103-8889-9e296117d899
p241
aV118490a2-6726-4ff1-82e8-30460d2652d0
p242
aV118bd62b-77a0-46b1-89f0-12cd87df2849
p243
aV11ab3910-30a3-4a83-8ab5-e4e803707a88
p244
aV11fa53a1-128a-4d6d-8b49-9ba816250cdd
p245
aV1213cc9a-3617-4600-80f4-e194bf199a63
p246
aV12143ebf-07e7-4a77-8672-4b0dc148966a
p247
aV1247c233-ad0c-4e37-8fd8-24ba60477caf
p248
aV124c1549-80e8-4524-8350-41ae65287aec
p249
aV124ccf6a-d12c-4e34-89b2-097492432e93
p250
aV1261f59e-6fb0-4ac9-8d78-8fd15db406bf
p251
aV126dde5c-6d7d-4795-8293-a180fd6ddcf9
p252
aV12a6060d-c9e7-43f8-846d-ed4076d349d6
p253
aV12fee0a7-2024-4a1d-8cb2-0a78d5ec78d4
p254
aV1320f8ff-7202-49ea-8e11-3129d68e31dc
p255
aV1330ced9-7b0a-4713-8d2c-e99f72324436
p256
aV1380c2e6-1a63-4953-8215-7597ebbc4893
p257
aV139c88cb-d7a5-440d-8a87-2f329a3a44cc
p258
aV13be4db4-b1ca-40ae-858b-02dc22ca07e2
p259
aV13c27f9d-1b0e-4afb-880e-15f92470ceb9
p260
aV13c8bbd4-2d5d-4b40-80cc-2186a6577025
p261
aV13cc444a-99ac-4fc8-858b-0296fbe4ba9b
p262
aV13d0d996-0222-46b2-8e48-59cfdd7573da
p263
aV13e6e348-bc69-4a83-88a1-d7f772cfb2bd
p264
aV13ef0902-a814-4eac-87c0-a99b3052320a
p265
aV13f4af7b-ab22-4641-86de-f57d969a6eee
p266
aV140bd0e5-16c7-4898-8124-18403c606759
p267
aV1418a8c9-531d-4e87-822c-965324493f65
p268
aV1424b005-95eb-44f0-898d-4bfb27e8bf22
p269
aV142b4531-179d-48a7-8be7-be502feaea1d
p270
aV1462eee0-db57-41ee-8d6d-68546a9ae8ed
p271
aV14637716-4e9b-4409-8979-fd8f25e74867
p272
aV146e885d-01de-44d8-8f3d-6c044d59dbe2
p273
aV14787310-2253-4fc1-89bd-06849ab9e823
p274
aV14932869-e4c3-4aed-8607-1729e95469f2
p275
aV1493bea7-3eb8-4dcc-86e7-002226ec77ba
p276
aV149fa62c-a7cd-41e2-8870-1f5614dbd229
p277
aV14b9fa40-773a-4431-8a43-6a35cf6027a4
p278
aV14cbdd2a-6ae5-411d-8ea3-c77fbc945247
p279
aV1533cc15-19e0-4562-86c8-e520e28d1cd3
p280
aV1539095d-73a8-40b4-897c-a6a0550c7e82
p281
aV159412b0-56c4-4bde-8a76-2fe22b91054d
p282
aV15976be3-5250-46a3-8e49-7c1f58b08a7f
p283
aV15a80a3a-10a7-4361-807d-8dd1cdbc2f59
p284
aV15b4f652-d72e-4242-88ed-5b02bf91f12e
p285
aV15bfd74b-5801-45c8-851c-5a2bca8af91d
p286
aV15d497d1-2edb-4328-82e6-09712711e6da
p287
aV1609228b-7b78-40ee-840e-4274bf75da7f
p288
aV162dfcc6-50e1-4c5b-82c3-d11cc69c53f0
p289
aV164a4cb4-3ef0-452f-8ba1-90390b096129
p290
aV1698ab7d-3b3a-4d96-8064-47a6a564ee66
p291
aV169ac5db-36fe-4069-8b8e-49f5820d0b82
p292
aV16bb4ac2-2751-47b2-8f91-296640cac2d4
p293
aV16c89297-5189-4581-8e51-b4444905367c
p294
aV16c93d15-1756-48aa-8e6f-422dbf7eb65f
p295
aV16f931b0-0ddb-4c99-87e4-778f3a0b588b
p296
aV171745ca-e383-4bbd-84c3-0228ceac94cc
p297
aV17339110-f240-4809-8640-3d75bd420276
p298
aV1745a134-6a73-44e7-8444-3a809a31ddaf
p299
aV174acaa5-ab04-446b-8367-2ec574087acf
p300
aV175cf532-6627-4668-8e0d-15b365ee96f8
p301
aV17689183-146e-413a-8c45-3e98d0623d32
p302
aV178a3772-3669-44ad-85f9-1370b143d233
p303
aV179f0767-ce8a-4ed9-86a9-351ffbf4fb62
p304
aV17a044f6-b2b1-4763-84b0-a37c206e2a54
p305
aV17c75255-d826-4303-8098-8b893bf799ea
p306
aV17d8e8fe-e873-41f2-8ca1-fe13cc109615
p307
aV17dff87a-bdd6-452e-8e7b-1691bfe4ffd5
p308
aV17e77689-7621-4d29-8f2e-9619462f5b6c
p309
aV17f0ae0c-4c03-4476-874b-69027f7c78b0
p310
aV17f5e0aa-790c-412a-8b34-aef5c8de27a6
p311
aV17fb9f0f-82ae-4d6d-83c4-f351ed92fbab
p312
aV1850b045-9fb3-4541-8fff-e54db31cf3cc
p313
aV1864d063-bee7-4738-863d-bbfbe82b420a
p314
aV1891c1de-c9e2-44ae-87bd-b4aa7d45ba8a
p315
aV1893ce36-4eb7-4eff-81a3-337b0d8d2919
p316
aV18a5491a-3552-4993-8acb-cbb3f7b3e0f7
p317
aV18be1e1c-707a-4102-8d40-31aac6c61145
p318
aV18dcbc42-e19c-4371-8486-fc62f2145de3
p319
aV18e73b80-120d-4a5f-8772-0cab45e577ca
p320
aV18ea96b2-d561-4991-8fcb-c67497500739
p321
aV191b4222-34f4-4ec5-84a3-320239e2d53f
p322
aV191e0088-989b-4e32-8310-1db06679481c
p323
aV19347db2-041a-4852-893f-fffca7d085a5
p324
aV19349424-18d6-4fdc-8e91-8ea18bedb05a
p325
aV19488598-a7bd-47c8-856a-575271d2bc4b
p326
aV1964930a-4f7f-4e17-8dcb-5ec1c0f90942
p327
aV196cb297-6b00-478a-88a5-0cd4606d427b
p328
aV196f2a99-0ecb-466c-846e-6b139e1794df
p329
aV19c02d3c-2b9c-4da0-8201-9c64655b9984
p330
aV19d48561-0408-4bdc-8518-050dfdf9567c
p331
aV19e7a745-f7df-4ef3-815a-286b66ed74c1
p332
aV19fe7fcb-63a5-48da-8e5e-f6235df8a8e2
p333
aV1a25ef87-9e23-492d-878b-3f5c981ff8ab
p334
aV1a2f71fa-9bfd-40e9-8b4d-c0b231157032
p335
aV1a351bf6-02e2-466f-8dbe-e5a8a7080a7a
p336
aV1a52a77a-4613-4385-8dc4-a8c781724276
p337
aV1a5b3d26-8f48-407a-89c6-4424f7455062
p338
aV1a5cee5a-ffb6-440f-89de-cb8754f608ea
p339
aV1a60f5f9-fbbc-4672-812e-14e52426afcb
p340
aV1a6a617c-7a43-4a55-8317-80aed8698e61
p341
aV1a6d9f7b-55d0-4091-8c5a-baad3170cf86
p342
aV1a7daed3-0901-404a-8a05-a34bf75d72d4
p343
aV1a8985cc-d821-4bbc-8717-c81de337ef8c
p344
aV1aa0e64f-66f8-4c59-81ba-95815aae29a1
p345
aV1ad69bfe-6c1f-4d30-8bbc-1fe78fdee8d5
p346
aV1af10f95-485b-40b6-892f-c7a46d704d50
p347
aV1afa6d28-1869-459a-8e49-7ec90dd492aa
p348
aV1b08b5f5-2483-41be-8e25-65ade95e7996
p349
aV1b0b3615-ed47-4b68-875f-12db9c7a5aaa
p350
aV1b0bb5e2-514d-4532-81d9-3f97a740407e
p351
aV1b1d98fd-1556-42d7-8388-bf91a3fc00f0
p352
aV1b221161-c73c-402f-8656-b25e09d960a8
p353
aV1b348976-c7ae-4b75-8fd4-dd71da1714fe
p354
aV1b5e724e-5397-489e-8668-d61470c47eb0
p355
aV1b61d250-6a9b-49e0-8847-44704762bff4
p356
aV1b7b77a4-8fec-4ce9-86c9-fe2674b3ebcd
p357
aV1b7f9514-c311-472f-8068-d8c51c443fec
p358
aV1b86422d-38d9-4133-85a0-cd1d9be00fa2
p359
aV1b88e4d5-8935-4203-8bf1-4c037b84246b
p360
aV1bab6a68-acb6-46f3-88ac-235c0a77478a
p361
aV1bda352a-b9e2-4e38-8246-8d9ce5e83c4d
p362
aV1beb92aa-d81a-4373-8c14-f9acae5d971a
p363
aV1bec9304-e878-4a73-8a25-d378987268bd
p364
aV1bee73e6-218a-4378-8336-e9ad0a069803
p365
aV1bfd79fe-39aa-4b73-88a2-aa624415e193
p366
aV1c00fa56-725f-4d27-8fb0-a15f37feae4a
p367
aV1c3d0160-a541-4775-87eb-672b1b0ddf5f
p368
aV1c699acb-4c8b-474f-8be7-1986058a69ef
p369
aV1c69dee8-2f48-479e-8fe2-cc9c72909db1
p370
aV1c7be38c-8fbc-4663-8083-cbb5f4b06b7f
p371
aV1c7c3efd-c990-4b96-8ecd-9e5eaee6b0bb
p372
aV1c8ce3d0-05b0-4624-80fe-06296712894c
p373
aV1ca1b14a-6405-4283-8d45-4eb7569df129
p374
aV1cb4e2b5-0934-4736-8bcd-1fef91ea2ce8
p375
aV1cc8c322-a68d-42a6-8e12-c479369a5bb5
p376
aV1cdcec70-a7c2-4c88-8e46-9c12f259795d
p377
aV1cf1d061-31bc-4e16-8fe7-fd9bb33bb397
p378
aV1d1db209-b680-4eaa-81aa-75d140776deb
p379
aV1d1e01bb-a10b-43ce-8b96-7325509b38cc
p380
aV1d51b4cd-e698-4a58-877c-b586c7e80205
p381
aV1d7c79d9-d38c-4e88-88ea-8374609b004a
p382
aV1d913f0a-7f92-4795-8534-3738b6359c28
p383
aV1db4755b-a492-46ee-8be4-1358f7a22c5c
p384
aV1db55c01-2df1-456e-8c0b-10f60ed7444c
p385
aV1db8cfb0-d7cc-495d-812e-4f922e1b2a91
p386
aV1dbfbc8e-0a14-4f8c-8102-d2c7cef6bb45
p387
aV1dd6a05d-55d0-400d-8d88-8bc98212e6ed
p388
aV1ddaeccd-56ec-4962-8d7c-3a0a28706459
p389
aV1e0129b2-29a5-4f4e-8b45-1722d364571c
p390
aV1e2fb921-22a5-4288-8477-88cc3ed99ed9
p391
aV1e435b68-bea9-4ced-88ef-73386442d862
p392
aV1e4397a6-16c2-4aa6-8959-7d07f350d15f
p393
aV1e4a67f5-6fa1-47e8-896c-f83b6dfa8570
p394
aV1e4d7028-09fb-46f1-8a6e-dfeed8d5d8a9
p395
aV1e4df5a6-bf53-4e0a-8c86-b6f32bbbd706
p396
aV1e7c4600-7345-409e-8e2d-789e2c9dbd06
p397
aV1e8043e3-5ac6-46f1-8aeb-2e9691cdc7c2
p398
aV1e815fae-2e92-4f1e-8e04-5b467ef6f797
p399
aV1e974aa0-7290-43b6-8e87-b653ff365cc0
p400
aV1e9a4363-7d53-41e9-8525-31b0dbdbe92e
p401
aV1e9dd607-381a-4b9d-853d-dad49317d09f
p402
aV1ec1f08c-9c56-41e9-8f98-539121b5a174
p403
aV1edc5f19-c5bf-49fa-8473-9cae39f197bd
p404
aV1ee4b1ff-3071-410e-85b2-146dd5b5d277
p405
aV1eed5078-c868-469d-8129-efac0044a141
p406
aV1efa4eeb-aa03-4fd4-8839-e94689195e70
p407
aV1f0eeebb-ba33-4778-8981-3aa795dba647
p408
aV1f299a01-e0de-4415-8a48-012cb21cc1ff
p409
aV1f6f649f-7ae9-4a0b-879e-4b182018ea76
p410
aV1f80acae-88fa-4f63-8bb2-642f13308d27
p411
aV1fa30e5f-f6da-4f93-8eb6-16491c277779
p412
aV1fa4e216-3ea7-4469-81ba-ce67d1772ba7
p413
aV1fb072c5-569d-4ab5-86c7-602ae1fd4aa2
p414
aV1fc22f78-d995-412f-8b5b-da4af580ad8c
p415
aV1fe8d30b-2e90-403e-8a6f-6d26a40afea8
p416
aV1ff9291e-0035-4ed4-859c-738c826a1bb0
p417
aV2003a017-1e87-469e-8d20-d8eaff0be42d
p418
aV202161d9-7353-4d86-86d6-516cced702e6
p419
aV202b442a-c4e0-4d2a-88ad-d20649d44ea5
p420
aV203a0a1a-a9ad-4fb9-8b78-b4efe2259011
p421
aV204766d6-199b-4e05-8255-29f2be747a92
p422
aV2049cc3d-72ad-4f1c-84cd-e31abfa141c2
p423
aV204a826a-403a-434e-8330-b8d9e00a6e46
p424
aV20663044-380d-452b-84cd-12fceaf8bacc
p425
aV20747070-374f-47cc-8882-874f9f52fbdd
p426
aV2074b3d0-0f6c-4384-8606-b5e4ccb3f7d8
p427
aV20a0def5-b42b-437e-8ba7-c4f82d9af45a
p428
aV20b42dfb-ba26-4e72-87a0-44c2259ede17
p429
aV20ea5b49-e7b8-4b38-855d-dc7718e12fea
p430
aV21043931-cb51-44d0-8ca7-f91ea7fb5d15
p431
aV2104b958-f7cb-49ce-8a37-d56dfa44b46e
p432
aV210dc66a-ace6-4720-8153-46bb92794777
p433
aV21396b98-5c8f-493c-87da-a5208559ad6d
p434
aV2139a290-41bb-4a07-8a66-e0f1b519abd5
p435
aV2149542e-62de-4595-8c90-24b2069571df
p436
aV2156117d-e035-45c6-842d-9d28241206fa
p437
aV2157589d-fadc-4883-8126-9938edef8a75
p438
aV2185c4af-e2b6-4b14-8860-81f540627b3c
p439
aV218c33c7-f2b3-45e8-85f2-e011f6672a04
p440
aV21a5987b-d3a5-4ec0-804b-e60f4a18e28c
p441
aV21af759f-0e59-42ce-810b-d2de19cdb980
p442
aV21c2da98-b51a-44a2-8ebe-5e9c6932b9da
p443
aV21d0c252-572e-4b83-8776-473b08f20a27
p444
aV2204e9af-3872-4708-87fa-1096720e3af2
p445
aV222d6d8a-8d66-48dd-8c63-83e6b46c8503
p446
aV22405a13-3352-4829-8ac6-878ebc0ceb34
p447
aV224ab49c-dc41-4f79-84d7-2d69f4489ed3
p448
aV225381be-2d78-42a1-8c32-cfffb5446b8a
p449
aV225f4cd5-9e28-4d42-8cb9-a430d73f514f
p450
aV226187d3-de25-46bc-8ae1-d7ce5a0c978d
p451
aV226fa669-cde3-40ee-8db2-a0afc43582b6
p452
aV2274d6b7-5ba3-49b1-85ae-3993b080af37
p453
aV22bced4d-ea4a-48ab-8756-ba1091497e65
p454
aV22d6131c-2394-4d63-8972-039910d2a82a
p455
aV22e8a8e9-4253-4efe-8124-dafaacb4915a
p456
aV23018f18-881b-4595-80be-1b3b92f71c3f
p457
aV230cafcc-93dd-4c81-839c-7adc7bb9228e
p458
aV23250b36-2611-4b82-84c8-7058170cae53
p459
aV234c2747-da10-40e8-8a54-bba10a1fbd25
p460
aV236611b1-a952-49ca-84b7-bdc3568f28f1
p461
aV23703484-9256-4864-8ea4-fae2c0d5b733
p462
aV23d659f9-cf3f-497f-88c0-788080c11a45
p463
aV23d7d7f6-9cc6-4990-8594-6e40bec60d45
p464
aV23ddeb88-6ab9-4f74-860d-c08d908321dc
p465
aV23e53c03-db11-45ed-855f-160a30ea5967
p466
aV23f88a37-f147-4792-856f-b4b7a7b9d242
p467
aV2408daa8-074d-4ec8-8bd1-230fd5387520
p468
aV24394567-801f-4624-8b94-6cfee3be9d4f
p469
aV243d03f3-5f3c-4159-8c61-07ae019d826e
p470
aV24472be7-62d7-4fcf-8d32-3568a32d719c
p471
aV244e69e5-e04d-480d-8196-c1ddf997c7f3
p472
aV24718fd4-3774-4869-83ff-46d9eeae4141
p473
aV24b76a40-9f66-4283-8bb0-1a0105c20b6b
p474
aV24bbb7a3-0792-4855-8ea7-60c1b1aaf270
p475
aV24c4a8d2-a4fd-4780-84b0-b66d6779acf4
p476
aV24e5c799-cd2a-4487-866c-757043c157b0
p477
aV24fb0c3f-ee2e-42fa-8a9f-dba1ce6850d2
p478
aV2537336b-1e38-4e2f-85cc-93c31a1331e0
p479
aV254c4136-341e-4c13-87f3-9010a7f4e7be
p480
aV255d051a-4777-42f5-83ba-14ee0e76d9dd
p481
aV257bc854-b195-4998-8232-70693f9e06c5
p482
aV25970121-e08d-4a2a-8e05-8601002180ff
p483
aV259eb9a2-1b76-47a0-8095-2aa4a07e58a8
p484
aV25a1df48-dd0e-4db2-865d-941b48719c9d
p485
aV25d78efa-f383-4e9f-8030-a580d3d763d5
p486
aV25fd4f92-0e84-423e-816d-d57a9b3d708d
p487
aV26023712-c851-45b8-82f4-bda3e794f3c2
p488
aV2612d8b4-1927-45c0-8704-07fb5b16b9f9
p489
aV2624ccb8-9ad9-4bfa-87cf-807f6ec0b94a
p490
aV2641ebca-c400-4f67-87ae-f618075a7154
p491
aV264f05ac-56e0-40e4-8440-bdf221e1b683
p492
aV26510a7b-d43b-48d0-87cb-4af7a50b7f61
p493
aV26bccdc1-e036-4859-8d4b-d576bd156cd6
p494
aV26bdcaf3-d1d1-4828-81c6-0136c00ec245
p495
aV26c423dd-08d7-4a64-8d11-255c4cb9e9b9
p496
aV26eeeb3d-fa82-449f-87a0-22ea42b221e0
p497
aV26f0578f-a4bc-46e6-8808-5b034640d73b
p498
aV26fe7eb5-02d2-42fd-82e2-e1c84b850f55
p499
aV2705412e-9e48-4798-8b7f-05af92557ca8
p500
aV27112295-5997-4389-8224-08cabeaad727
p501
aV2718261c-27eb-45f4-822b-e5f2f0d42f30
p502
aV27206067-6ef2-4b14-8bfa-11ff0fd0978b
p503
aV27275722-a7d0-4f5a-85f2-405bb4dfadf5
p504
aV27385009-10e1-4c74-83a9-e8f7011f18ee
p505
aV273d72c7-212d-46fe-8c3e-bc9ba0d417d8
p506
aV2740e945-0707-4d93-8cdc-aed077d4b7d8
p507
aV274ac9c0-3232-4f74-8dcc-03c70c7d2485
p508
aV276182d2-33ba-4a59-8cf5-6e3448368526
p509
aV27657273-421a-4611-8063-3f198366c19f
p510
aV278204cc-d255-42db-884d-99c0c4a9d897
p511
aV2793778e-0333-4ab0-8b1c-1e6e1cab8471
p512
aV2797ba0d-83a6-4382-8318-60f1a7f7627f
p513
aV27a1a48e-2946-48f9-8daa-95bd204ca67d
p514
aV27ad5661-92cf-4bcb-854b-e50450fdddfc
p515
aV27c49608-2c5e-401b-8ecd-4449eb6c9171
p516
aV28087c24-adbf-409b-806d-c9ccdac3cc42
p517
aV281471d5-b8d4-4460-8398-e62b2ccba08e
p518
aV281fa72f-4c34-4763-8c1d-4b8d9fd99759
p519
aV28268638-ba9f-4111-830b-3e3390dc3e4a
p520
aV28328800-6c92-4be9-8a28-12e2e37cd1cf
p521
aV284dffcd-00e3-446e-86f9-22a3bd7bd79e
p522
aV28544127-5a76-41d4-8087-b216cd0248af
p523
aV287a14cb-3bd4-4b1c-84ca-a6065b097d40
p524
aV28836c21-fce5-4d67-8e1a-b8babf56f690
p525
aV28a13e03-54d3-4ff5-8c14-cdaaf60c9556
p526
aV28a48276-71b4-479a-8b78-3de116699a16
p527
aV28fef517-dfe2-4f51-8267-a2f64f3f3b63
p528
aV2903a456-d9ce-4a5d-8fde-94c1417e39aa
p529
aV29083acd-72c1-48fe-8884-6322c77a2ae1
p530
aV291ab3ab-af2a-4cf5-83d8-858394a662b8
p531
aV29307cd6-b3f5-4aa2-8dee-3744896a88b4
p532
aV29491099-c23c-4bf0-8941-935bedfd6410
p533
aV2956eec1-429e-44d3-87b3-6d22771bafc1
p534
aV295da1a0-038b-416c-8986-e1d9914663ca
p535
aV29661268-3324-4b93-8184-7dcdd5a988bd
p536
aV2983acea-38c2-4f20-828e-ad8761acdb71
p537
aV299647db-7915-4a01-81ff-e9ad36022c3e
p538
aV299d58bd-5400-4d9f-82c3-187d589c0473
p539
aV29c026b8-c2da-4d43-86d1-6e1663fc8cdf
p540
aV29c566d4-ad7f-4d26-8bd2-6b309ee9b86c
p541
aV29d775eb-4882-4c9f-8a4d-e514db3693bc
p542
aV29f4799f-8172-4b4b-81aa-1bf90f656f0f
p543
aV2a328179-6197-4506-88a6-3c88c49d3415
p544
aV2a578b92-918e-4765-8347-2190883bbcd3
p545
aV2a7d24db-8ff9-45bb-8dd2-57ca17882699
p546
aV2aabff4b-6aea-48ab-8057-3cf673107364
p547
aV2aaf3f12-e30c-4445-8ae1-da31195e4a35
p548
aV2abe5bb8-dd84-4b64-8168-1eb95c516016
p549
aV2aed7534-53a2-4764-8e54-c4999d603157
p550
aV2af0e0ab-7e4b-4a7e-81b4-5a4539b13237
p551
aV2b169d70-5d9d-4c4a-849c-429ae5face4e
p552
aV2b18b0c1-695b-4449-8a91-0528ccb67be9
p553
aV2b1aa08a-4d48-48d9-8a87-0d2a3a364ca1
p554
aV2b354baf-75a9-4e52-86e7-6f52f90eae15
p555
aV2b3dc824-4049-4e7e-8a69-2ec00657fc95
p556
aV2b4fc709-bf21-4954-851b-3659080f4e1c
p557
aV2b56a3b7-7879-4e5d-8739-19b3bad3d6c8
p558
aV2b6ea1c6-73bf-4e0a-8930-ef0b126ce5ce
p559
aV2b7525d9-0293-47d8-83b4-3ff007e4746f
p560
aV2b93e56a-ba37-4168-86ac-299b1df0d775
p561
aV2b9986d5-11d1-4a00-817d-56c625b5e9df
p562
aV2bad1ced-a53d-49c4-8362-93cccec6b61f
p563
aV2bb70216-7d79-479a-8850-520452e404a4
p564
aV2bf0b2b9-e595-4ec0-8e44-ccdba9115993
p565
aV2bf96b10-9568-4075-817e-a30c7ccef56b
p566
aV2c170645-3a53-41ef-802f-a4d3025beb29
p567
aV2c204ceb-5f65-446e-8390-5eb998f66638
p568
aV2c21eb94-5ab1-4454-8a0c-b4cf36923b61
p569
aV2c60349c-86c0-4c05-83ba-65375ac0437e
p570
aV2c6adcf0-7e45-4435-8f45-622fc8e629f6
p571
aV2c6d1235-b174-49f3-851b-1a4bf2bdf3ca
p572
aV2c708ba4-7a3b-47d1-80de-b8e5ed2b3542
p573
aV2c79375d-ecf9-44d0-8847-c884fcd05f74
p574
aV2c7b5bf9-bf83-4cfe-83b1-aa3d2486693d
p575
aV2c85a464-a570-40c8-8dc3-cfcd3fefabb6
p576
aV2c8b51f4-9688-42da-8f98-7e3c5ed82af8
p577
aV2c8f34d4-9d1a-4ad5-8ea6-d953778239a2
p578
aV2cb901df-10d6-4aef-8c02-5acbd7d39b8d
p579
aV2cc0dbea-032d-409b-85c9-22d78818a4e4
p580
aV2cc2aac0-04ed-46e1-86ba-eea043290e3d
p581
aV2cdd2678-2222-4c44-85ef-9ad57b151d73
p582
aV2cf31b78-75f6-448d-8e7b-1e1ceaf55d8b
p583
aV2cf71c08-159a-4023-8f37-8e058aa26a93
p584
aV2d49e332-f33b-48f8-8c24-1d68f87f0361
p585
aV2d4b7f90-6b42-4867-8866-34b58a9ed84e
p586
aV2d54a8cb-bbc9-4a49-8df5-4dfe2b435677
p587
aV2d564f6a-b78b-4dd9-8bdf-77bdaa557804
p588
aV2d65ec17-2629-4982-8d34-4aabb9d467a1
p589
aV2d93fca5-0c01-472c-89fe-53297b426316
p590
aV2d981888-23d1-4f89-84fb-40866247848a
p591
aV2db65093-04c8-4d0f-8bba-868bb6fff866
p592
aV2dbf5d70-dd62-4a88-89a8-a506bb442bd4
p593
aV2dcbb36c-d219-4c82-8fc7-30ddb8f5d251
p594
aV2dd6a057-55cc-49a0-805a-e6f27ecb7a1c
p595
aV2dd6a78f-6463-4df8-8659-a9916e5fcce7
p596
aV2dd8621b-367c-41f7-86aa-58f73cec0b77
p597
aV2e03b30e-e447-4387-88c9-25127cc58a2d
p598
aV2e071752-302d-4911-80cc-fe2f3e6260b5
p599
aV2e184a9a-09b5-4f90-8574-2f8722ee4ebf
p600
aV2e1f9351-5f68-4e3c-869c-5f57e8852967
p601
aV2e50fc76-82b2-4fe5-8ce3-81644022a5f8
p602
aV2e538d6d-d83d-482c-8797-410bfe6b32f2
p603
aV2e726ce7-952b-4acf-8c32-62d898921850
p604
aV2e72d52b-d916-4e18-84d9-a4b11000b7f1
p605
aV2e7a4d5b-cac9-48ed-8a9a-7993d942be21
p606
aV2e997489-15a4-425b-8911-60b3ff7de154
p607
aV2eb6a30e-2cfe-4c84-8d82-ac1e60e4becd
p608
aV2ebcc37b-38d7-4c86-8c24-2d84dc1e9acb
p609
aV2efdd7be-c0ec-46e3-821f-544fa6aeb5d9
p610
aV2f2656bb-e40e-4dc0-8fe0-04d3463865e9
p611
aV2f46322e-397e-4638-8fc3-5e5deefbec48
p612
aV2f55da54-d8d4-4f8f-8d12-dd1918706c60
p613
aV2f59f775-4fd1-4f1f-823b-f1b5fdd31e83
p614
aV2f5a5808-6988-4e6e-8f6c-147789a45ee9
p615
aV2f5bf33d-138f-425f-86b9-674740135411
p616
aV2f688d6c-5d6e-4c1f-84c2-759de1f935a2
p617
aV2f6e0324-dcb9-438e-8671-a768a2c7c343
p618
aV2f855eb2-3a6a-4409-8380-01633ec799af
p619
aV2f88a086-f1ce-471d-8533-ef1109b50329
p620
aV2fa4ae80-3f9b-4cd8-87be-5e93bd5ec356
p621
aV2fa56337-384c-451f-8da9-56d1806d0152
p622
aV2facf545-50b5-48c1-8681-8646fad2b4c4
p623
aV2fb71828-69f5-46b8-8358-5e59bfa8eefe
p624
aV2fc5a055-f2a6-4dea-8a89-ddbb0fca422c
p625
aV2fc5bc6b-64e8-45be-80a6-d390246c098f
p626
aV2fc64cd0-fdfc-498f-85e0-3ef3c5f1353d
p627
aV2fd13b8d-dc7b-426d-8eff-cb55ee1397ee
p628
aV2fe9f421-d9f2-4307-8d67-fab8b2251a2a
p629
aV2ff2df5e-c8ca-46f7-81f0-9078becbc294
p630
aV3016e35d-e1d4-4b6d-8678-ffa022de2b94
p631
aV30190af3-f26e-4a8c-8757-2cdda698fd64
p632
aV301b0880-39ee-40ac-8e5b-dfb242658af5
p633
aV3029e6f3-8db4-4077-853f-303dc35d959b
p634
aV302eacb5-95af-464c-8ffc-e1d544ac61a2
p635
aV3059a823-d239-45a8-855d-993102db93b7
p636
aV305c3e0c-bbf2-43f3-837e-f85fc59137c6
p637
aV3072568e-b72e-417a-82f5-febd35b70c2a
p638
aV309e06e4-379f-4909-879c-03ca9dedf41f
p639
aV30a3b150-4e16-4b2e-811f-55c7965b9e82
p640
aV30ad93fb-bb47-4791-86e9-e79c9df6f44b
p641
aV30b56335-80ea-4195-84bb-dfdb3cbf0d9c
p642
aV30b90c53-4543-483d-81af-c435ff2f956c
p643
aV30c571f2-ae2d-4bd6-834f-55d4dafec7b2
p644
aV30e85299-f505-479d-8e5a-b00b78e3c7ee
p645
aV30e8a22c-145b-4569-8c6e-7845d574ab6c
p646
aV30ea9f25-d5a6-459d-88c4-0f2ae3460a01
p647
aV30eae258-344b-48a3-8948-41a8eeaa76d9
p648
aV30edb405-64d0-424e-821a-12eef0c02eea
p649
aV30f9353c-b565-4802-8f9b-da99aaacbf93
p650
aV31103d4d-aeb6-4ebb-8143-63ea18de71d8
p651
aV3118cf60-7782-41ee-88c3-5429ab9c4d2c
p652
aV3134b244-f2dc-4e7f-8b72-87f128184b15
p653
aV314a373d-c59d-4e77-8024-e6603b6de5dc
p654
aV316a3c3d-68a5-42c6-84d9-7eae332607fd
p655
aV3189afef-c63b-4d49-8814-9ee26a556e46
p656
aV319b4e7b-2e2b-4fef-8ef6-3996d4906265
p657
aV31bd0561-9560-4595-8738-31c595626b4f
p658
aV31c93f82-a473-43f3-8c7f-66f9c6488d7a
p659
aV31d874a8-36f6-4f61-880a-d9080e3003e7
p660
aV31fd1b40-b0fd-47af-80a2-67dd416c7d7f
p661
aV322bece3-ffbc-4575-8a9d-036d709618cd
p662
aV3269ddc8-8c23-4c01-83ae-89a4f895b928
p663
aV326cfa79-1d36-44e1-885c-a4a8ed2b8987
p664
aV327bdc68-529d-46ac-8c5f-da1fc83ccc85
p665
aV3284951b-0c53-44af-8668-8a623826cd0b
p666
aV32860c8e-1c38-471b-89e8-517f5e7ffda4
p667
aV329a1155-278a-4626-8f4a-f2039021b3d5
p668
aV32afdae9-c590-423b-8cef-7dfe48466bf1
p669
aV32d5a618-e0b6-4736-81a7-3ff92084a24a
p670
aV3309a10f-db1a-4dfe-866a-c733d99f1881
p671
aV3326f6f1-206a-45f1-846e-811ee1885593
p672
aV3336ee3b-db4a-4a44-87c3-73747c552334
p673
aV33438c8f-9ce1-49fe-83c1-5a402cb3161e
p674
aV335fd2a5-69ba-4984-8aa2-9ef1eaa8b2d7
p675
aV33620a91-9055-4693-8d17-6c34beeb90c2
p676
aV338bc157-5f12-4b1e-8bce-56feee7a5d2c
p677
aV338be81a-e8b8-4a1b-8ce0-8afafdee19e0
p678
aV33967b14-2128-4ee6-8f41-2548ce71c588
p679
aV33adf4b9-a096-424d-8be9-94eafbe15db9
p680
aV33c547db-016d-413b-8482-3881ac86964f
p681
aV33d89462-890b-4e2c-8437-360e71273284
p682
aV33df0f83-350a-4f21-8755-32ef6cdefa05
p683
aV33e2cc18-5eaf-4b36-8709-0ae6f87cc1fb
p684
aV34018cfb-6b98-44c0-89af-1b2a63a0d2f5
p685
aV3423d9bc-a165-4bc3-86b2-0f7e743c5d55
p686
aV343929c2-86fe-49c2-86f4-d92ef557b8c2
p687
aV34468451-d817-41b3-8360-c7c715ab7b9b
p688
aV344c9556-990f-4f81-8352-a4ffdaa22b72
p689
aV3458aea4-a4e8-4c2e-880c-9aae4abb7f1a
p690
aV345934f6-0d08-40ca-80c8-baa536978435
p691
aV345cefb5-2426-48ea-85b1-70a516b0701b
p692
aV347bc7cf-e31e-4444-842a-6e26ec338834
p693
aV348a32aa-5683-4dae-8ceb-e456ccba7f1b
p694
aV348e6dfe-67de-48a7-8a24-4903389413bc
p695
aV34aa8cd7-8cc2-413e-88c7-b42ac807c8ef
p696
aV34d028d9-4974-4304-8e31-73aa6c973ff0
p697
aV34d7f74f-d3d8-41dc-86cf-6737034e3b8d
p698
aV352d47c6-deca-431a-89c1-ad7f0135e691
p699
aV353b9f0f-b8f3-4912-880b-58ed2a1513be
p700
aV353e2d73-42d9-41af-8507-358d767fc630
p701
aV354e737c-5183-4826-8c66-2afe6480c45f
p702
aV35524832-d172-4423-8ddd-4d353d7cff32
p703
aV35562570-5641-4f73-892b-b5513f51c31c
p704
aV355f823c-6d9c-4f81-8aed-88150b58ba0f
p705
aV35670548-2c68-46e3-83c9-5b7e24813ce6
p706
aV35768f0d-cc95-4c37-8732-74136499b94a
p707
aV3585d420-4e2c-4f59-8cad-6bc212a5ab87
p708
aV35cf23ed-1c91-45e7-89a2-2c8fe0b62ada
p709
aV35def3b2-1c1c-4ecb-8914-a8cb04a3e315
p710
aV35e4c02b-91ca-483c-80e5-fd49dc232ac1
p711
aV360c9a60-7ffb-4d39-8e2f-80461a368bd6
p712
aV3611bed4-9af4-4228-84c9-c6519c1f04b0
p713
aV362f3333-9efd-449d-8313-f76b19c96cc3
p714
aV362fa22b-8976-4d0f-8fcd-0085ed135aa0
p715
aV36489181-dc32-4354-812c-79a32fc1df8a
p716
aV365f76aa-8a41-4d5d-88a3-be85e59b335d
p717
aV3668cfd1-04a3-4b7e-8399-999dcc4405af
p718
aV36703b37-42b2-4c95-821d-d784d6301c7f
p719
aV3672de52-bb3a-4244-8180-9265de8aa634
p720
aV3679285a-e315-42eb-85b9-addb1d12f27a
p721
aV36939ee2-27a1-4ba9-8fe7-d9800cf45ab5
p722
aV36967fbe-d4ba-48cb-8f02-00a3457e2569
p723
aV369aa16d-01af-438b-8bb4-861880ad3c3e
p724
aV369fae95-b64c-4a19-87f4-0ceda923cddb
p725
aV36b3ef8c-861c-4b40-86d2-ee2ddfc5c134
p726
aV36ed7f0f-3357-4f07-8b45-4fb64e319883
p727
aV3717cc3d-26e8-4a77-8324-3e0731893045
p728
aV371a29fb-11a1-4538-8bc5-930bc0f9d897
p729
aV371e3962-5646-4de6-84ee-50e4c9588d00
p730
aV3741e241-f64b-4726-87cb-175bfa0ee289
p731
aV37511f44-9a52-408f-8d91-a46cd83afded
p732
aV375570a8-3b01-465a-800d-c7d93e9e508f
p733
aV3785718d-ea97-4c75-83ba-0a609d71c356
p734
aV379bf222-7afa-4701-8acb-b23befe43370
p735
aV379ee5e8-f435-422b-89a4-ca35f331b40a
p736
aV37eb21fc-9a7c-4a94-82c9-ae106066fc58
p737
aV37fe245f-07f8-409b-8717-46a3f796f98f
p738
aV3829e26f-e731-40d8-857a-11571b1dd856
p739
aV382b6551-f19d-4d0a-847a-4441acfe2142
p740
aV3838b03b-2ca4-4f2b-8d66-f6d5e679f019
p741
aV383e37eb-3b9c-424c-86df-7f3c72a17446
p742
aV384da03d-c9e1-45c9-8443-cb0afb814e63
p743
aV385c6c6d-7a89-4880-8702-125ebc67de87
p744
aV387a871a-a4bc-4c2f-8ca6-0e9d2186201d
p745
aV387d3cca-6564-47c2-8487-e9d726ab3f80
p746
aV38912c80-7a77-4759-8293-7245062ac4f7
p747
aV38dcf632-785f-4ceb-8772-2c6a01b5d961
p748
aV390b928d-4afd-4a2a-81c6-4201cc6d01a6
p749
aV3934ae6f-9e91-4b57-866e-70d2e0d09586
p750
aV39392127-afab-4df9-8c1e-be1d3112ebe8
p751
aV39539594-3181-4fc0-828a-d6d95f0f4783
p752
aV398ffe7a-e516-4e74-8626-f30bd0019760
p753
aV39941ceb-30f4-4957-852e-1918ca6e8e99
p754
aV39a3f86e-b6a1-4819-8fd1-af9c935702e4
p755
aV39a4dbc1-ad1a-48f4-88c9-fbd93c83fa14
p756
aV39a57297-4122-4306-8b7b-c2401ddeedb3
p757
aV39ade1d6-9799-41f5-8cb3-ac1413fabb16
p758
aV39bdd96b-a9d4-4aa7-8006-c0525ace9730
p759
aV39c2f94d-a176-4cf4-8d0f-7e0d80c9bc35
p760
aV39ec7bf7-7705-4244-881c-694d42fd3ebc
p761
aV39fd34e4-a754-4882-8395-76d872aa8c8f
p762
aV3a036a42-113c-4f7d-8bd1-45f27e64c747
p763
aV3a09747d-0cb7-46ba-8a80-5abadf0871e0
p764
aV3a1ddd4d-8951-4f53-8551-f5e675532000
p765
aV3a1ff574-f9c1-4202-88d7-2bd25bd69003
p766
aV3a36cea1-2308-4fa8-80dc-04c8919d3bad
p767
aV3a37780c-28fa-459c-816b-4d820dd8490e
p768
aV3a572ca5-e58d-41b6-8ff9-1a7b1db98aa3
p769
aV3a660efc-e2f3-4598-82d6-1342861cd3a7
p770
aV3a73568c-ca00-4f05-8000-cbd1988ff674
p771
aV3aee9a4a-4305-4dd2-8609-2b889809519f
p772
aV3af37d62-a97f-4ea7-8147-c57e703422b5
p773
aV3b06e838-3c07-4239-8af0-8369e042832e
p774
aV3b0e8d3f-6a63-424d-8dde-717f802af27c
p775
aV3b1c5157-f0df-49f3-849a-9c94e205999d
p776
aV3b2b0f5b-5db1-4b06-8b22-b1e933a7a8c6
p777
aV3b30dbfe-e91a-453c-8639-81202a373478
p778
aV3b36cbf5-a8df-48e7-8aae-d6f2093d108d
p779
aV3b3a99f6-b141-47f7-88f5-e05877a4e874
p780
aV3b43c7c3-2853-4b50-8c81-7cacf7eea254
p781
aV3b78d4b0-dc0f-4122-8a16-4cf2910e7cf6
p782
aV3b955aa7-ec13-4636-85d2-c180a868d3ca
p783
aV3bd8e78d-9d75-49fb-8719-27ad65caad55
p784
aV3c0a78a1-74a2-48ea-8333-8a62c1a52507
p785
aV3c225bc1-a27c-4ba7-8d3a-f40fe54ba7a6
p786
aV3c3b19c9-b17e-406d-8886-9847a77fc115
p787
aV3c5059ee-cb67-4bbe-87dd-ac84be02a8a3
p788
aV3c518711-e974-4b2b-8bd5-4637787e0489
p789
aV3c51aa13-b77e-4e88-8e75-65c052af0bc9
p790
aV3c613b10-78d8-4f5d-8a0b-60365086a286
p791
aV3c80dcc7-ebf7-4c87-8bba-62ba7dddd59a
p792
aV3ca4da70-214f-4981-880b-4e30efe86770
p793
aV3cada282-3ca7-4ae1-837b-12f4a2d58a7e
p794
aV3cb45aa6-a537-49be-8c44-35f439c0b1b6
p795
aV3cbe81a8-3dc4-4736-8974-c3cca0eec429
p796
aV3cbf191c-32cf-4b8e-899d-4fa2226c6d3a
p797
aV3cdc2c1c-506a-4e2d-8300-04d70b04b76b
p798
aV3ce55c17-4837-4c74-86c0-3d4cc7ea6fae
p799
aV3cf43522-8b58-49e5-82a9-9a57f9620fa3
p800
aV3d065421-4fb9-47f3-8a7f-2dc9d2f536a6
p801
aV3d0708eb-b421-4c72-888b-06b17b100d42
p802
aV3d08189c-6e4b-4d51-8974-910acbf08e0a
p803
aV3d219fcb-ae7c-4bb1-8bc1-00c868515370
p804
aV3d343e5b-2d05-429d-80f8-2b17ae946095
p805
aV3d486e9c-b50c-4cfa-81cb-175f31a85b9d
p806
aV3d6377b4-20b8-42e1-8560-90df13b6aeea
p807
aV3d704b17-5df5-45fb-8e4a-b8dd6ecff65c
p808
aV3d7f3e4d-e564-4108-8bb2-04d60bf1c635
p809
aV3d86d03e-5552-40ea-89ef-90c89de1d69f
p810
aV3db15e8b-348f-495e-8dc3-fb436a5ab5df
p811
aV3dc62ac2-e82c-408b-846c-cb3487ada83f
p812
aV3deb2934-150a-4be8-8535-73073c346731
p813
aV3e17b2ab-d296-4087-896b-39072952ddf9
p814
aV3e1e6785-70aa-4c2f-8ed9-5a31aa2d4fee
p815
aV3e36c82b-d27f-4f85-8bca-ef3e2534318d
p816
aV3e3bbe9f-8bae-405d-8df0-942313e593c1
p817
aV3e403e7c-0b17-49e3-8a88-c5a6b4a14e03
p818
aV3e699a0e-5a66-446a-8f92-4e5c0cf8870a
p819
aV3e6a324b-419a-43ff-85b6-9808ce38a2fe
p820
aV3e7066fc-de28-4c31-89e4-be252aababf5
p821
aV3e8fc8e1-a85c-4ba7-8fc3-c4d0fa18c092
p822
aV3e923a51-d2da-489b-855e-a005a7c24aa9
p823
aV3ea0512a-f523-432c-8ec7-d4d97859be65
p824
aV3eacb71c-f2ba-4e8d-8afb-c7e3ec65080d
p825
aV3ecfdd19-b6fe-4524-8b2c-d44687102076
p826
aV3edb160f-b80f-427c-8ddf-15fb47320f78
p827
aV3ee65522-43f3-478f-8253-ca826ca0fc86
p828
aV3eef1ce2-c22f-4e59-8cbf-1fe12f9a0c25
p829
aV3ef4ac72-e7fe-46a0-8407-3caab59a6836
p830
aV3f199349-9695-4740-8273-188d476602d1
p831
aV3f23e087-821c-47b8-8167-6bb996310188
p832
aV3f27a1f4-0b9b-4ad7-89d8-3b688e3afb54
p833
aV3f4ba9af-315b-43a1-8051-d9336ac4a800
p834
aV3f4c072c-ca0c-4615-80f0-fb9ccaac7ef9
p835
aV3f67dd28-0c64-4fe4-8b35-43f4a385b56a
p836
aV3f8c738b-0101-44c8-8ad9-39db883ebd2c
p837
aV3f8dca22-2f33-41bf-8d02-d26fe178864a
p838
aV3f8f23c5-3471-4af9-8e96-5d6b07384239
p839
aV3f95925a-fbea-40e3-8e5f-43ac938682b5
p840
aV3fbad5a0-e5c2-4198-8d89-5e199373b056
p841
aV3ffcc390-ce0c-43dd-862c-b0b2080e26e2
p842
aV401ed6fe-71b9-459b-8235-efb236352715
p843
aV40365791-6c7a-4901-8d9f-3d17d202c367
p844
aV4051742a-d6d0-4930-8cd1-8841eecea25f
p845
aV40762431-3e38-4342-83c8-404d801dde0e
p846
aV40a219ed-8963-49bf-8975-60e6ad6825de
p847
aV40ad2db6-51c7-4890-8e11-3c43ebc61312
p848
aV40b113f3-b682-4a09-8b1b-726326db98e3
p849
aV40bad546-a371-4a8c-88f2-16e978cc7d0a
p850
aV40c8c15a-bcc0-4371-8b7b-b26435224e41
p851
aV41107e68-e106-4dd3-89e4-c11c972747aa
p852
aV412e6f57-e88e-4db2-8684-551c08d8ae78
p853
aV413713e6-4f28-438c-8ed8-d18671c9153a
p854
aV414373e6-2423-4bce-8ec8-ffbad07238f2
p855
aV41651920-c35d-4d7d-8b79-af6cdc4957c2
p856
aV4196a947-a812-4598-86e9-ec538fa23a7e
p857
aV419ca3b5-0f42-4609-8207-8294a1dbe84f
p858
aV41a97c4e-ab75-4c3e-8ad4-f23b37638858
p859
aV41b2ff90-0f12-4e2a-886a-3b6583e2de19
p860
aV41c4db5c-2032-4bd0-8171-143e57fd2e34
p861
aV41d65f2d-9ae0-46b8-83ea-731703a7f30c
p862
aV41ebfb5a-2eb4-4925-8f0a-e366d4ba0a75
p863
aV41ed9ffd-8a84-4c64-8990-9d1e788b9936
p864
aV420905b9-e4a5-4072-890f-3025bad0b418
p865
aV4214723c-072a-4823-873d-2ee1bb9ac1f7
p866
aV421c44c0-1614-4059-8e4f-573ee66ebcf9
p867
aV423bedeb-9e56-44a7-8898-141357036e55
p868
aV424cb75c-c5d8-4115-8499-acc13e71a2e9
p869
aV4266d75e-d625-4663-8345-a32a5bda1f6d
p870
aV4270ee44-0847-44e5-86bb-ce8a32bc79dc
p871
aV42713c22-901f-4ac7-8935-a0ea3a5114f5
p872
aV4274f7dd-3cf1-462c-8536-7953cdde9e3a
p873
aV42cab7fb-5d9e-43db-8512-5e97013c6241
p874
aV42d308fc-69c4-481d-872d-da7bba16656e
p875
aV42d4e19b-f152-4a32-853c-2130f0af178a
p876
aV42ea84a4-5cf8-4e93-8dca-b9f1e99345a1
p877
aV4307ad66-7393-4cea-859d-25afeb104dfa
p878
aV43117a6c-655f-4353-8d38-af191dfdd13d
p879
aV4319f2d0-c500-4c54-8f3b-dd748a3eb906
p880
aV431f768e-5a7f-47e1-85f8-85b5c467c9e2
p881
aV434a4b7b-62e0-4f96-8b13-b337e193df68
p882
aV4359686c-c383-4de6-879f-a10bdaeae4e3
p883
aV435d6545-7d8c-4a73-8a45-bae320d0e2c4
p884
aV4361f575-66fc-4e24-849f-0dc1f677d12b
p885
aV43675474-3b66-4761-89db-c4dd1ee6105f
p886
aV436a1f21-b64c-47fe-8b66-e0437d8845ee
p887
aV43713181-9fc4-4f11-8200-14cb3ee2a7db
p888
aV43746d3b-fd9e-4d66-8b9a-5e68cb2a1caa
p889
aV43948401-d767-49b2-859d-eab479487fd8
p890
aV43a6723b-94b9-41af-8b71-23ee773d08d8
p891
aV43b3a9b3-3842-45e7-8bc8-c4c27b9462ab
p892
aV43b661fb-40c8-4c38-84dd-f4e0683804c4
p893
aV43d39e2b-63dc-499d-8e90-be3928374233
p894
aV43ec398f-bd14-4ea2-825c-b2de772acbc9
p895
aV43f9262a-e44d-46db-8409-39189d2f1d7d
p896
aV43fdef94-f9c0-44fe-8aef-bf9e0b160cf8
p897
aV4401d6e9-a468-4107-8197-037a22b85a20
p898
aV441a793a-298a-4d54-88e0-b6e5d99889b8
p899
aV442dd824-7435-4a9d-8a0a-4c274ded1384
p900
aV443acb66-f385-4169-8149-5790c9e073d0
p901
aV443cf973-f456-4583-86db-30ecb4e2c0d3
p902
aV445567fa-5631-4e5b-8135-029c95706d20
p903
aV446386ee-1f3b-4f90-855f-86917048e4e1
p904
aV4466a2ef-c8b0-4114-83ed-7edc59a9502a
p905
aV446b0472-83ee-475a-83dc-9dd9742e910b
p906
aV4495aa30-d06c-40b5-881d-bdaa790107ff
p907
aV449857c0-f2e7-4f16-8eec-e000a1882dfa
p908
aV449f9ca1-1df0-4a2f-8797-4146e317226a
p909
aV44a1e143-7b4d-4f70-80f4-4e92112d89dc
p910
aV44b112eb-455b-4de9-85bf-1ebcb91e2ae8
p911
aV44c1c121-e2be-4cc4-8f1f-b0a9dbf8b21b
p912
aV44d1951a-f953-440c-8724-4ec794659cac
p913
aV44f9c4e6-8c66-4f76-8a0a-3c99c2711087
p914
aV450b6c8d-bed1-415d-894c-686e908e8809
p915
aV4550b540-92ca-478c-86fe-2f3e36949e3b
p916
aV45580ac4-4cf4-4a73-8fd7-e9fa156a2a0c
p917
aV456f9051-c1d1-431c-891c-25ce401db82a
p918
aV45c1201b-6da1-4f42-8fc2-52e071fc6934
p919
aV45c5fafe-2374-4469-822a-2a8590f61242
p920
aV45d0b079-18a0-4b6d-86d5-8bdb2664fb5c
p921
aV45e4b7a8-35d4-4bf5-8ebb-cd1382aaec13
p922
aV46154c0c-9766-4f22-8bf8-c191d2e96080
p923
aV4623bb17-fb5d-4099-8136-410811469504
p924
aV4630a9f7-df87-402e-857b-0404c11a3afd
p925
aV4660d2dc-3989-47a6-84a1-d8f9f045a185
p926
aV4664b087-b68b-4011-8c05-81163206dd89
p927
aV46697ca7-b973-4a4e-8f96-454c30585a79
p928
aV46726052-b30d-4d3d-8be8-bfa6ef39df55
p929
aV467abf3e-c150-4717-8399-135f9838e399
p930
aV46913500-ab3b-493c-837b-91b2aafb0147
p931
aV4692f13f-c7ad-4495-898d-94c5711c79ca
p932
aV469ac2a6-c6f8-4480-80bb-56d940de100b
p933
aV46a16a49-5c34-4aaa-8270-4feeb36033b9
p934
aV46a5a49b-76a5-4529-8bb0-a740c10d281a
p935
aV46b2a92b-4531-4319-82f8-ef2951345402
p936
aV46b47a1a-8d48-4a0d-8545-f34045079462
p937
aV470e3774-ce91-4eca-8f45-a9e2d3d54714
p938
aV472d9f98-2964-41e0-8682-794b37061369
p939
aV474cff23-7c7a-459f-8bde-7a48cde3a3ea
p940
aV476f4e4a-f1ed-41c4-8fb6-79afa57d2098
p941
aV47763ce0-d2f0-42ad-81a9-8f1a8327ceb5
p942
aV477f29ad-1aae-4559-8465-746a0addec81
p943
aV47887feb-6a23-4cd9-8fb3-ef634858545f
p944
aV47bd20b9-6ca3-4837-8911-0f56eff28449
p945
aV47cd9f33-71bf-48a3-863b-9679552e4dd8
p946
aV47d3c334-2e7e-4810-8ec3-c211e00fdb22
p947
aV47d65cd6-49bb-4a5e-8522-8a8d280c9f44
p948
aV47d98ded-d24b-4c0f-8f7c-0f1ed97d3b06
p949
aV47e2252a-b376-457a-8fdb-95b9f311d294
p950
aV47fde9bb-3227-4897-8eb8-cd7c9783d0e2
p951
aV4810573a-7f6b-44f2-8d12-36e30e6ac6e6
p952
aV48191566-1c40-40fe-86fa-07d344193ac3
p953
aV481e3996-3c6e-40b6-83c4-072b2e2d4098
p954
aV48211b8c-17d0-4ebc-8441-98c93e884474
p955
aV482c9df7-fb3f-4fcc-82d1-f9e2869c646e
p956
aV48370de5-c93d-4ce8-8bc4-544afbe2eabb
p957
aV48396e12-a998-4a52-8640-42533ead833a
p958
aV483b6898-4f30-434a-80bd-0a2b9c82f5ed
p959
aV483cfa8f-cab2-43d7-80d3-33b9aeefb98a
p960
aV4854b8d1-3b46-49ab-8ede-23d68ba0b78d
p961
aV4885a5a8-4f38-4ce6-8b14-7c336d03dcb5
p962
aV4886b0e5-1e75-42e0-8202-3463346ab59e
p963
aV48884df6-8f3c-4057-8798-a80fd529b2cf
p964
aV48997ffd-53f0-4a4b-80b6-c5c7473776e2
p965
aV489d3e08-4318-4582-839c-2420aec867ae
p966
aV48b39a49-54b3-4d6a-8e50-ea5f8497be7e
p967
aV48c2812c-cbd0-4c2d-88d2-f194b1c3f1b7
p968
aV48d4a75c-96e1-4acd-8e8f-220c436f6d7f
p969
aV48dda192-6fde-467a-83ca-809241de94bd
p970
aV48df4612-853c-41b2-82b1-66aad58bf395
p971
aV48f2f0b1-c5cd-444d-8021-974bd595bf75
p972
aV48f3535d-ea35-443f-858f-ed0d87d788ad
p973
aV492b639f-71bb-4a99-89fb-5ee5b9f05ce8
p974
aV492d1f41-8278-4c9b-85f5-4bd397674c1b
p975
aV493c41c0-3c18-45a3-86d7-6c335f9f1f03
p976
aV4947fb4a-3eff-4385-8cff-005be62cac0a
p977
aV497fc6ec-63f0-448a-8b8e-80a9bc308a78
p978
aV4982ce30-176d-4e39-8058-18393f60046f
p979
aV4985dec0-f3c3-460c-800e-2b1f118f16c6
p980
aV49890881-c93d-4ced-86eb-5c3364c01fd5
p981
aV498d8f49-4ec7-4d87-836d-7e8964f62e6c
p982
aV499310c8-d7af-4a68-8d69-14043f04ce08
p983
aV499a69b1-298e-4c52-8b28-d0d315c9c644
p984
aV49a2623f-f85c-4935-845f-a5f5ea336088
p985
aV49c5bdda-c719-4bee-8b64-7390ff6134cb
p986
aV49d2df20-9c55-4280-8462-7125d17991ea
p987
aV49e2685e-ef2c-4ff9-8553-30c60258c83b
p988
aV49f7a050-0f1d-4cd0-886f-71385f1cb40d
p989
aV4a13d863-f012-4d2a-8917-e1271750e775
p990
aV4a2ceac2-e63d-4974-8d9b-00a652e75f1a
p991
aV4a39ad8b-7b6a-462b-86dd-adc373609783
p992
aV4a57a6ee-7324-4f5f-8211-b00570c82065
p993
aV4a580683-34a3-411b-890a-ef5d3fa402d7
p994
aV4a761de1-b9b6-44c5-8d1e-84f22ffa5890
p995
aV4a78d1a2-e259-4eb5-8bb2-51344911d3d4
p996
aV4a9df273-15e1-4272-89d1-bf9dfe5d5896
p997
aV4aa6160d-f089-41f9-8555-379429219166
p998
aV4ad9bfe9-6cbb-4f2a-8192-e539b855a8d3
p999
aV4ae1e347-4e8d-47e7-8a9e-665b6f74692e
p1000
aV4b37b45a-6bf3-4a4f-89c9-2ef72318582d
p1001
aV4b399f1a-14f2-4ba1-88c4-6129c35495e8
p1002
aV4b417dd3-db93-4fb0-84b6-0c03594f72ff
p1003
aV4b49346b-2efe-4173-8375-baca1f7759b1
p1004
aV4bb079fd-9a6e-46d6-8d46-1c81b0daafba
p1005
aV4bb6138d-fe76-4212-876d-c589a1924e69
p1006
aV4bba5740-7fa1-4ba1-8162-ba67a5aeec37
p1007
aV4bc2b394-23b8-4424-84bd-27d1bd877a49
p1008
aV4bcaa2f4-d1f8-410c-8bfb-385a8517d591
p1009
aV4bd38244-27d4-4e77-86f4-a2a9a70bb7b0
p1010
aV4bd9d887-142a-4262-8961-8b78e74c8462
p1011
aV4bdbd6a3-c04a-4859-8275-d1bf1b198e3c
p1012
aV4be8b096-9147-4861-809f-bcc9eb1d2dfb
p1013
aV4c17ee76-ce24-40e7-8a09-ba6ec36b62a2
p1014
aV4c3da1a9-0ac2-44e8-8d13-e4e99d18b8b4
p1015
aV4c40d0ea-2bd0-4351-85fc-b633c2391041
p1016
aV4c56d66c-3643-4b34-8da5-dcfcf9f4c0e5
p1017
aV4c9fab30-f153-459b-8ff2-6ca64f790f01
p1018
aV4ca114cd-176f-4c39-849f-ccaf8f7474ec
p1019
aV4cb0e410-6653-4383-8356-9adabb272a1d
p1020
aV4cb612a0-29a4-46ce-8a66-caa34b87497c
p1021
aV4cd840b0-c1a8-4a1e-8a2e-d0dda4c2b146
p1022
aV4cdc22f1-5351-49cf-8b0b-51e57da0646a
p1023
aV4ce5946a-1ecc-4d63-86a4-08ba4abab6dc
p1024
aV4ce5ee76-8aad-425b-8217-0791fca195db
p1025
aV4d14536e-3453-4558-82fa-0a88475797c3
p1026
aV4d61bc34-b10c-4974-8522-39d3b6679277
p1027
aV4d62f8f2-3be4-4d9f-8f96-9c4e2fcfb8e9
p1028
aV4d6d6a0f-4c50-424c-8dff-6411dc273a57
p1029
aV4d87f03a-fef9-41d7-835b-bd5410159817
p1030
aV4d9f96d0-0d3c-46eb-8088-4f11567497a8
p1031
aV4db6ddda-6189-4bcb-8674-95db62883893
p1032
aV4dbd601c-b06b-484e-8035-2a9a6bd2d1a8
p1033
aV4dcb9edc-2846-4e3a-8a16-af92ca668732
p1034
aV4dd6f710-f701-498a-8544-bea67f0318e4
p1035
aV4ddd44ef-a416-4839-852b-dfe063733873
p1036
aV4e03d522-3fe5-4db5-853e-e11505038b45
p1037
aV4e16732f-4180-422e-84b4-24c60200e637
p1038
aV4e1ce030-b8b6-4a4f-80dd-c9a05bb1f3f9
p1039
aV4e46dc8e-650b-49ce-8315-d715e0225848
p1040
aV4e6ca6dc-6904-4b0c-83b9-0379fdf441cd
p1041
aV4e6dd5af-d552-4c69-85b3-16f6ca7e2ee2
p1042
aV4e9caea7-e955-4003-8293-6d646f5fecdc
p1043
aV4eba65ab-d959-4c9f-8cdb-5e81bf2c5bb7
p1044
aV4ed1f44f-47b6-4972-871f-dd2de83dde7f
p1045
aV4ef1e8c7-2402-4e3b-86d2-8eb1a1688919
p1046
aV4ef77b5a-4cb4-4129-8ab2-9324189e021b
p1047
aV4f3166e7-30fa-4088-8973-cbed95ad81e4
p1048
aV4f902c60-b422-43a2-8b92-8e20146c1f61
p1049
aV4f918246-de42-486a-8c63-9984cdbe5a05
p1050
aV4f94ce3e-a464-4b30-89b1-d66d2e775b65
p1051
aV4fa1ff31-4ea7-4294-8c77-1848091adad4
p1052
aV4fb29f93-2bad-4a80-8d4b-e7a183653802
p1053
aV4fbfe655-d57d-44ff-83e7-29b818e10591
p1054
aV4fd341f0-9a0a-4a9d-8e8c-db47ee6b5de8
p1055
aV4feccac1-75ae-4e78-8719-12a5716c278b
p1056
aV501098ae-39a3-41b8-8328-c7a0a63f6fac
p1057
aV501ddc9a-7cc5-4d2a-8716-6165e380a500
p1058
aV50205962-04b9-4f0b-82ef-71148d3ae40e
p1059
aV504a926b-82b8-4be5-8f61-3f08871b4e52
p1060
aV5094de5a-7aea-4baa-85ee-a1953d0fb5dd
p1061
aV509d85e1-c1b6-432f-8de1-e5fde1f1d643
p1062
aV50a94f7d-33dc-407e-8843-888fc5c9df55
p1063
aV50bd6dab-ea10-4eac-8a19-295f90f42f22
p1064
aV50db1153-5827-4ae7-8075-eaa31d265288
p1065
aV50e54750-afc8-4cc2-8af3-b601f44b0a59
p1066
aV50e742f9-c222-4540-804d-f1bc41bb4ee9
p1067
aV50efa555-64eb-455d-8fa6-835c9fe87968
p1068
aV51002f13-2305-4710-86de-84dd5c0c383e
p1069
aV5101bc00-4718-4ede-860d-3811dc2e3a21
p1070
aV5144290e-c01c-4cae-8cd9-02856ec589f0
p1071
aV51928d1b-263d-465e-877e-ed424ff33add
p1072
aV519f6c26-21ac-4820-8d36-9d582ebe6efe
p1073
aV51a6ccef-6fa2-4b5a-839d-ded7f349bdd8
p1074
aV51bd5bfa-edd3-4dff-8e75-6a6bc1aeff89
p1075
aV51c6622e-af3a-4542-820d-ebeaadb6a25f
p1076
aV51d5a514-e149-4885-8738-940d960e2f5f
p1077
aV51fc58d0-ff31-48b9-8d12-dc369fa74812
p1078
aV5206ad00-237e-4fef-8f2d-58bc52951fc8
p1079
aV52360433-529d-458f-8486-316f7846d8b9
p1080
aV524cc7bd-b814-4eef-8904-b7726f7e115c
p1081
aV5274527b-e0cb-48b8-8293-c9cf2508e11e
p1082
aV5286645c-e685-4fe8-8616-697a82ef1ea7
p1083
aV529ff5af-0072-4833-8273-a1f2ee8d9b82
p1084
aV52c745a1-7ee2-41f4-8f37-15f959a5a87e
p1085
aV52d6d88d-718e-4da8-8867-73fe57931ce3
p1086
aV52e46bf4-222a-4dea-85b5-74ca6fc4fbfc
p1087
aV52fc7860-afbc-414d-8a94-d39cd229b6c8
p1088
aV52ffeb1f-0651-4373-8c44-61043e2a10fc
p1089
aV53053eb6-a421-4b24-899e-f2dbda6f89b4
p1090
aV531739db-b474-4e7b-892b-393a900f4e63
p1091
aV5341b17d-f4f3-4b0e-8644-65bf3b397c48
p1092
aV53712711-5472-49bc-83f0-bfaaf6eeb7e8
p1093
aV5377b774-e907-4921-8da9-b176224d47e2
p1094
aV53aa6ce8-d9df-4ec4-869f-74102483e241
p1095
aV53aace22-4ab6-41af-876e-153c77a5f3a5
p1096
aV53add948-66fb-4c6d-82b4-b472249ac676
p1097
aV53ba5f6c-fcbd-421c-81cd-c146e6f5c3f3
p1098
aV53c3dd6d-d8f5-48ea-8bb3-b0e658cef09d
p1099
aV53da79be-215a-4c7a-8ec2-b2ead5c3a522
p1100
aV5406b1f8-b69f-426f-81ef-0fa803fd4b27
p1101
aV54119d2e-ecd5-448a-8508-8034443690fc
p1102
aV5413d162-9761-4b1c-8c68-ed7ac79d5f6d
p1103
aV541a92e1-b33d-4b5c-8516-f1a0ea4c90ae
p1104
aV54291371-f225-42b9-801e-9d8bee33dd48
p1105
aV54328762-ad72-43c4-8ca0-21250f8e07e3
p1106
aV5451a10e-b3e9-4cb9-8b04-68bc2e019b2c
p1107
aV545d22ef-6a8e-4c48-83a8-bf7e9918d582
p1108
aV54758d38-c432-431b-89c0-f2b0ecb6c6b4
p1109
aV54839f7b-cec5-4b43-882c-3a7a63aeedd8
p1110
aV54912868-a3cf-4fa8-89e2-c05f641acf1a
p1111
aV54a34539-197d-44a1-8e4d-f47964541ac3
p1112
aV54b44492-64ff-4fb0-81f1-e7db46184251
p1113
aV54bf4c24-80b9-46b7-80b4-5b2347c7a670
p1114
aV54ca5a95-4d0f-44a1-8afb-1fa56dca449c
p1115
aV54d641eb-061c-401e-89a0-f8ac4d3c374b
p1116
aV553ae05f-5779-4bbf-825d-7344f583fec1
p1117
aV5576ad35-d7d4-4a43-84c2-bdb960f164f4
p1118
aV557758ad-a511-45b2-8817-d2de9a4257ae
p1119
aV55777266-7b93-43c5-85a3-ff391a001cfb
p1120
aV55a3935d-8b80-458b-874f-534f2908c11d
p1121
aV55a64b33-ea8d-4b8f-8969-9d0d7a5ced10
p1122
aV55bd18a9-6ca6-46e0-8ff9-d46f371e8c5c
p1123
aV55bd5a34-da80-4664-8715-a14ef9bae4c2
p1124
aV55d85314-ebf1-4dc8-8710-975f0bdc98e3
p1125
aV55e8f463-94ee-4ad6-86b8-ff4e6d822b25
p1126
aV55ec3afb-c8ac-4737-87d4-d36bbaf55d0c
p1127
aV55f5de6e-c2e4-47eb-8a37-4c87c1f9e34d
p1128
aV55fc6bcf-9914-4cba-8105-0772cf35dcfc
p1129
aV560756ae-c7a7-4b2d-8dcf-d99be7fcc5b9
p1130
aV5616c778-c14b-44ba-8aab-dc4a4f4422ca
p1131
aV564357c1-ce40-44ae-8192-6d19ca40db5f
p1132
aV564a22e9-9793-4722-8cb1-e3190cee69ac
p1133
aV5651fe64-4a2c-4879-8c9a-d01a2b83fd30
p1134
aV565a5ec6-5e2d-48e8-85a7-001cb4b99490
p1135
aV56635e18-10a6-43b9-8582-69b87f54143f
p1136
aV56818707-7466-4ad9-8e33-5a0fdde671ac
p1137
aV5686170b-d865-4ff3-8cda-4f49f0cded61
p1138
aV56a1b87c-94cc-4d58-819c-c9b0b704848d
p1139
aV56a31613-e601-4ecb-8699-8b595f71175b
p1140
aV56dbabd9-7811-43d9-8eac-cd57306e7eed
p1141
aV56e8f5e5-870e-4924-8c98-46ed1365e357
p1142
aV56f1c8a3-631e-49f7-86cf-9bda8f73f980
p1143
aV5719a11a-28c5-4ba4-8113-094d8bbc6927
p1144
aV5721e4ee-1bae-4a69-8c18-2f78a72f936f
p1145
aV574274cd-9fa7-4568-88b8-d291de841392
p1146
aV5762ea6c-2136-476d-8ff0-d9e6dabf8087
p1147
aV576af00e-6ac3-4fa2-83e8-a9a9f5f12e55
p1148
aV57aac1c6-cf93-45ac-8526-ae8ce733097f
p1149
aV580db441-4610-4c70-816f-38b2c59b6895
p1150
aV580e37d5-5b7f-4eec-86d7-855db5d0ff8b
p1151
aV5822b106-8476-45ef-8a29-358ac9aa2313
p1152
aV5848f8dc-78b3-4bbd-8594-c5b7523d6e90
p1153
aV584d3831-8359-42fb-83c0-f9233f7c2ce4
p1154
aV585e8b96-bbff-411b-824c-4cad4ce6cef6
p1155
aV587fdf42-5671-431b-81b6-73c373c263f5
p1156
aV588cbe9a-bf67-4de9-8c21-d5a3ed692e7d
p1157
aV58cd6752-c00c-4a73-839a-838c8d5ef708
p1158
aV58cf05c7-b393-4a0b-8068-d3ffbd9a35e0
p1159
aV58d5f34e-579e-4ade-8288-e4b130669ce4
p1160
aV58d706f5-17e1-4fc5-8d7c-e642cd6654fc
p1161
aV58eb21e4-c0d4-4b7d-839f-11a2f332b1cd
p1162
aV58eb22f0-d9ba-45c8-89c2-a112c755368d
p1163
aV58f3a9ad-d927-4450-8e44-beab0e7b74fe
p1164
aV590404e8-2369-4b50-891d-c7558080307e
p1165
aV590c2b45-b552-4edd-8616-3d0b69ed60c4
p1166
aV5937c0b7-1789-4e91-87c7-8fb2ffbfda02
p1167
aV593c4346-aa39-4ee4-81a6-833f3bc2406a
p1168
aV59432744-6709-4220-82ec-122f9d0057f5
p1169
aV5953a28e-2505-4b16-84c8-77b95e497a41
p1170
aV595f6a8b-43e2-4c85-8b08-4a5db932872c
p1171
aV59685132-491c-4799-8561-60a7d6b324f4
p1172
aV596faf1e-3c86-4179-864b-1555d36c0036
p1173
aV5975b7a5-de02-44f4-8ca3-9679dc75f380
p1174
aV597c5444-ff3e-4195-8b19-31b5c9bf3f23
p1175
aV597fbf37-3f6e-486c-8eb4-8384eec512aa
p1176
aV598c4810-5c95-44d3-8bcf-334480e82127
p1177
aV599063c3-6184-4d18-80f4-eba1aa1a8670
p1178
aV59a7084d-a1a2-4b52-8f2d-3cc31303463b
p1179
aV59d52609-fc3e-402f-8197-87bcea79597b
p1180
aV59daad37-5467-4434-89aa-9225ad221e90
p1181
aV59f17255-292d-45f2-81e5-a9c89cda4e66
p1182
aV5a001eac-d036-4df0-87c1-d7b3c2adef48
p1183
aV5a2426b8-0932-4313-8cc8-d02cd790c67a
p1184
aV5a271c05-c1d0-493d-825d-8adb0b72defc
p1185
aV5a2810a9-7d68-4118-837a-3ea0dff863fb
p1186
aV5a2a63a2-d1b6-44bf-8601-786f68260aee
p1187
aV5a2f3dc9-f067-44c6-856c-65700b7fe844
p1188
aV5a3ac291-6198-45a0-800c-67624ec61435
p1189
aV5a43755b-67c8-4d7d-8d84-10955b1af0fe
p1190
aV5a49f39d-424c-4266-88b0-82e9eff74509
p1191
aV5a4f2aa0-da60-4f2f-8360-d02c4426e462
p1192
aV5a598940-cc42-4b91-8970-929d4ad0b6f7
p1193
aV5a7524fc-35d7-4862-8f66-e3a68d1867f7
p1194
aV5ab5a372-f036-407f-8a2c-f87a0e352272
p1195
aV5ab935c4-c741-4ac3-8bd7-15496a261d37
p1196
aV5ac94d1b-115e-4b1d-8bb6-b0e7fd0a204a
p1197
aV5ad18f18-cf6e-428f-8b92-2206979b8324
p1198
aV5ae714d2-4db3-4d97-8dec-5f34da3e7b46
p1199
aV5aefa418-88df-46fb-89ef-6822d3a1a8e0
p1200
aV5b151a34-afaf-4af0-8497-416cf1f11673
p1201
aV5b18a624-7ec1-4515-8f2f-981b6abdc345
p1202
aV5b28bfa0-3319-46c3-8578-67fb463bed28
p1203
aV5b2ca30f-9a2b-45e8-8f99-4acb13bf282d
p1204
aV5b369dc3-ccad-4def-802b-fdef49cd572b
p1205
aV5b43251c-90c7-47e5-8b1e-31522a751e61
p1206
aV5b52827b-d3de-4cd6-8bd2-be6a1ff268f9
p1207
aV5b5a1292-13fc-4b73-81c8-ff1de62c0bd7
p1208
aV5b70a689-9bb8-4727-889c-02f8d61d479b
p1209
aV5b731d30-ad9b-4046-8af2-30e0a717c8bd
p1210
aV5b7c3ec7-ad9f-4d2e-8c4b-241ecc0dd8c6
p1211
aV5b7df451-2d62-465d-8715-e4b4f6eb1cd1
p1212
aV5b807dbf-41a4-4c75-85c6-6b34b916303c
p1213
aV5b8082d7-8b3a-42ca-8c2e-467da9ea3120
p1214
aV5b892b96-2d1d-49f1-8a0a-e2b3f94765bd
p1215
aV5b8db202-c399-41e6-861b-a0c470c224a2
p1216
aV5bd7ba59-6df2-4c95-851a-67b0208ed726
p1217
aV5c0661c7-69f9-428b-82c4-5bbf73ed0f40
p1218
aV5c163cbb-b703-4ba0-89b2-487a0069a6d6
p1219
aV5c25eba4-f465-4f19-896d-f317bc8e3ca0
p1220
aV5c453980-c851-4e78-8858-a98cd7ed8d8c
p1221
aV5c4591b5-e287-4813-8481-308e3807f8f8
p1222
aV5c60ce20-86fe-4b9e-8dcc-94cba8e2689a
p1223
aV5c682a57-f108-4363-8c7e-838d2517d867
p1224
aV5c7b9156-6952-4e95-8bc5-711b185adba6
p1225
aV5c91e749-2de7-4cbc-89d6-9113de5cd1f7
p1226
aV5c9d284f-2adf-43e7-8a5a-abc687172fea
p1227
aV5caa13d0-b8b8-4f4f-8ed3-971ab497fddd
p1228
aV5cdfaf87-06e5-44c5-8c12-5e45b12211ea
p1229
aV5cec095a-1e11-461c-8226-33d5e7ada525
p1230
aV5d088fa5-35f7-4326-8b9d-15c27188da1f
p1231
aV5d0a351d-42de-4204-8e49-c2c27f7d738c
p1232
aV5d247553-642c-4153-82bf-b14cd9dbfa2c
p1233
aV5d3fd6fc-6dcb-46a2-81ae-ddbe15faf892
p1234
aV5d4b5f79-5e59-492e-81d8-42845b7c85ca
p1235
aV5d5450cc-f63b-4ab2-8bf1-e613bf06da08
p1236
aV5d572c4e-11fa-4ec9-8c61-3f56b94f5e00
p1237
aV5d595a32-ccc9-418d-8f4f-b833f4b46175
p1238
aV5d6fa1f0-aba9-4f2e-8fba-7dfc4ad141ab
p1239
aV5d7d5e0e-2ce3-48a6-8f2c-7bed48e2110b
p1240
aV5d866493-6a11-443f-8ea4-5289289cb3b3
p1241
aV5db1e24a-70ba-4be6-8bbb-af464a8d54a6
p1242
aV5db70d8a-507d-457f-872b-e1253412c7c9
p1243
aV5dc2bbef-87c4-405f-887c-504e2e110d6a
p1244
aV5dcc6749-a5b5-468f-8aa4-102fd08ad0b4
p1245
aV5dd4647b-b4b1-481e-8762-b07ea52def96
p1246
aV5e18d8bf-b91b-463a-80ab-126e0a775b51
p1247
aV5e35f7c4-501b-4845-82ae-240f4a591068
p1248
aV5e3c2bd1-e2f6-4c8d-898c-2bf2f83314ea
p1249
aV5e87b037-7830-43e8-8e95-7228100682dd
p1250
aV5e8cc4c4-8a95-42ba-8114-b79d68e1dbe7
p1251
aV5e8f2922-7aa5-4f6c-8763-4500bb70cf0b
p1252
aV5e9b0844-a087-4b1e-8355-caeb635d2596
p1253
aV5ec55f92-8bd5-484a-8d0d-12f9be95b730
p1254
aV5ecbd28d-02a6-4f0e-83b6-080e3ed12494
p1255
aV5ed57906-bfde-43cb-8785-200422eebeaf
p1256
aV5ed5ea24-3f87-43ac-8451-a5d83f960e33
p1257
aV5ee6982c-9661-49a4-8ffc-ebd294425a15
p1258
aV5ee7fbe0-07bd-4867-855b-8f5a72c88fd2
p1259
aV5ef94749-64fa-433d-87c0-4a01ac1437b0
p1260
aV5f1505ee-b482-448e-87c6-60310fde2500
p1261
aV5f1d9d1f-8a97-4b21-86fd-4656cebb605c
p1262
aV5f393be4-bd15-448e-8d69-c654de19b71c
p1263
aV5f411093-6573-48f6-8fe0-b3defc507ffa
p1264
aV5f445dfb-bea2-4b08-8c26-6e34f042ce6d
p1265
aV5f580a28-30ef-4a29-8db2-e12a71dad96e
p1266
aV5f59843e-5439-46f8-8f63-ee43fca38d9c
p1267
aV5f7bbddf-2421-402b-820f-f3880a0811bf
p1268
aV5f846bdb-371f-416e-8042-f51a89873cb6
p1269
aV5f997b44-494a-4450-8953-10dc81210e61
p1270
aV5fc0c6ba-7e23-4ce8-85b4-d483b0e40c84
p1271
aV5fd7e64a-10ac-415f-81fe-9055cc2a0039
p1272
aV5fdd9e88-2c01-4df7-8705-2ae84590f47e
p1273
aV5fe04809-de62-4da7-868b-3215697b6425
p1274
aV6006f3a6-1ab6-4fc3-8618-51d6b0b1ee45
p1275
aV60426052-b03a-4ea4-8862-dcc079fad55c
p1276
aV60476bf0-4d6f-4742-849f-7e5b3dbcbf77
p1277
aV6048a64f-297c-451e-840e-71b41bcdd533
p1278
aV60800954-a10c-4313-8612-91fb008ec2ae
p1279
aV6083435c-bb6f-49d3-8821-91bf161b7853
p1280
aV60c7cb12-90f0-4158-804e-4ad9401fa5d6
p1281
aV60f212cd-afe7-4e46-8657-2605d52e0909
p1282
aV612675ea-1e6f-492a-8d6c-5e067ebba76f
p1283
aV612d07ed-074f-4680-801b-32819aef64a3
p1284
aV6133bdfd-f0f4-4e0b-82f9-4d663acf799f
p1285
aV614caafb-4e01-48ba-8233-1b879e29739c
p1286
aV61616b9f-d95d-4bf4-8ff9-1c2e2d8b0262
p1287
aV617870dd-3c71-41b0-8a3c-f2aebae6da76
p1288
aV6190b3ab-3e6d-4418-8aed-ea2e067547e4
p1289
aV6199d1d4-2cd0-4aee-82cd-00e30c776fc0
p1290
aV619f154e-51cc-4e5d-8aeb-d5729e4662ff
p1291
aV61a1710d-421a-4b4a-882e-9f635234c588
p1292
aV61c84606-7327-48ab-80be-19b8fe919ea2
p1293
aV61d2b6fd-3c1d-4582-88a6-947096ce102c
p1294
aV620575e3-c02e-4ef6-8fe8-e574f7a48ad2
p1295
aV620f9079-8717-4fae-829f-d2e80551ad22
p1296
aV6212aa45-3fba-48bb-8d1f-ff61e07e654b
p1297
aV62205b0f-a616-4daa-8e80-4685ddd86e94
p1298
aV627604f3-0890-44c0-806f-9a494d071c6a
p1299
aV6281618f-c74a-40cb-8b82-c6269a492ac7
p1300
aV6293ffd6-0af2-4623-810b-6f680c886f8c
p1301
aV629db44d-d3ac-4f85-80ec-f31650d2e7b4
p1302
aV629dfe50-6d34-4735-818e-53bb40d17dc5
p1303
aV62b1a2a7-3072-4d4c-8903-9c7bb123f516
p1304
aV62da366c-960b-4f18-8bd0-ef87e9ed9e91
p1305
aV6312df0a-d345-4fae-881e-28b41a70cb98
p1306
aV632398ba-0a6f-4208-8e8e-d0c35c1d2b77
p1307
aV6326047e-0d35-4270-8ceb-7ee5be850378
p1308
aV6336a035-7095-402a-8f4e-37fd2bb20a0e
p1309
aV63596ab6-987e-4372-8f11-8d9a6ba4f488
p1310
aV6395805e-b088-4d54-86d5-76ff08131855
p1311
aV6399782d-9def-465c-80b9-bb016477334d
p1312
aV639e023e-e757-46d6-887f-1a0aeccfd7a7
p1313
aV63b53f49-58a9-4bc3-87de-0c9826124651
p1314
aV63bee9b9-89da-4158-816c-28132549dffb
p1315
aV63f48432-5c2b-45d4-8e6e-1a35d3c43b05
p1316
aV63f834e1-a2f8-4c56-862a-c765469a1404
p1317
aV6411c17e-69b4-4725-8a4d-0bacbede57b8
p1318
aV6426adca-2b86-4353-8575-ebef5ca74915
p1319
aV642a4851-7830-431f-81ec-04b14af62ce3
p1320
aV6451f7f4-c2d7-4209-886e-f63f632eb322
p1321
aV645f35b3-4fb0-4daf-8d46-a0c15148e669
p1322
aV64719de0-3e28-41c0-8b8b-2709f2fda00d
p1323
aV647cf8b5-e846-48a2-8491-599af1013535
p1324
aV647f3dc3-fd7a-4ce9-82e3-e389f35d6daf
p1325
aV6481c4c3-c3cd-4110-8e40-fbae00225d4c
p1326
aV64836692-82b0-45fc-819b-e8c562394b90
p1327
aV64c17aa8-25bc-4994-8f81-af9e5c64f94f
p1328
aV64c8f4d2-8482-490b-83b5-3dd10793846e
p1329
aV64cf1204-3008-4d06-83d1-a85e30948724
p1330
aV64ee4fe4-0169-4d9c-8c87-0f8b9af8d217
p1331
aV64f187bb-422d-46b8-8a08-aa19f71bcdd6
p1332
aV64fe9cd3-ab7d-4f73-8c76-57f1334d0958
p1333
aV65012a88-6121-4b42-8197-7635693781fe
p1334
aV650d1653-b30c-4c96-8529-93cea5155914
p1335
aV65136c46-fa24-4034-8fda-10d5e843d83b
p1336
aV6553fc5f-9448-48c7-8fa1-b27450db6e90
p1337
aV65552961-d009-422d-8ab5-869874bfde4b
p1338
aV65799df0-c9dd-434e-87d4-3e18e69b5c45
p1339
aV659ef360-5b22-4b45-8ae4-133269cd4942
p1340
aV65a4af90-4285-48f2-8172-0537dacd49ca
p1341
aV65cc1c5c-a97f-410d-8b65-815a0e2ecc63
p1342
aV65d0f166-493e-45d3-87af-a002dab02a67
p1343
aV65eaef2b-586d-4de8-80f5-55d5943eb53f
p1344
aV66032627-d37a-425a-8195-625b7a68e4bb
p1345
aV660568d4-2f40-44a0-8b3a-8b31f642452f
p1346
aV660a00a9-0e25-4e3c-81c2-9997284044bc
p1347
aV660e6602-a669-45a1-8a07-4f9fb99f8694
p1348
aV66197499-d332-4dac-8a2a-e5bae08df9af
p1349
aV661a7dbe-5fe0-40b4-8359-eab4920e1f94
p1350
aV66239ceb-c61a-4b66-89aa-a91783e0ff93
p1351
aV66270c9c-0ea1-4c6c-87b5-32744b84b76d
p1352
aV666846d7-00b5-4928-8bde-374d63c61a8e
p1353
aV666a12c7-c83f-471e-82ac-eddf2bb5c85f
p1354
aV666e5421-6909-4ce7-8777-a828b1ba3f95
p1355
aV66823dc0-d1b2-4eca-8bb7-9093acce9fba
p1356
aV668bd40b-8ada-4171-8df3-a73ae904f792
p1357
aV66993ca0-18aa-4307-8758-80f7e6c34d8a
p1358
aV66c01a67-82a3-4102-8ec3-b9de5ddc3fd6
p1359
aV66c30255-d345-4975-8324-2718811ac433
p1360
aV66d7f38b-3636-497e-8c69-4bb100cffd8a
p1361
aV66fd6b76-869d-4bd2-8885-c18ec967c389
p1362
aV67225b97-4479-440b-81bb-37b6ef92f856
p1363
aV67272df2-57e4-476f-8c90-76f2c17c18d1
p1364
aV674ab4af-190a-4c78-82a8-d37738af16bb
p1365
aV678c68b2-82a6-4b5f-8718-1fd14ecbe9b3
p1366
aV6795e7c1-ff95-48cb-8a12-7d18ea99b6b3
p1367
aV67b08d48-0ccc-4397-8aee-51fcc6500602
p1368
aV67be74fd-3692-4573-880f-17977c1ee766
p1369
aV67cd64a6-4799-4fae-89a1-5b3d29940844
p1370
aV681c00e6-cc20-4cf7-8334-937f4572b903
p1371
aV68249757-1ed7-46bb-89ad-ef92e8202bbf
p1372
aV686194b9-4bb6-4781-8274-700092b283da
p1373
aV688a0331-0704-4539-8878-2f3f57e977a8
p1374
aV6899cbd7-3d8f-4223-8def-1b0593f9094c
p1375
aV689ac878-6838-4bba-8b0c-c2d21215246e
p1376
aV68a46b72-774c-45f7-8851-1ec979323a20
p1377
aV68ad29c3-6366-4e9a-899a-3b9e7a0953c2
p1378
aV68b45aa2-9c4c-46e0-8c33-13e9f253b09a
p1379
aV68c2b1f4-d1f9-4c38-8886-7adb9e7922d7
p1380
aV68cfe04f-fb7d-4aee-893c-1f5c83d1aa1e
p1381
aV68d4975f-3a93-4f20-8cde-4650db18671c
p1382
aV69161977-18bf-4b71-8bdf-6a16660864f9
p1383
aV692fec66-1aed-4d20-8da7-d7857e0f65f3
p1384
aV694b5af0-36e4-4315-8946-6b19fa1aac59
p1385
aV6965253c-8206-455b-8cce-c67d52ddceda
p1386
aV696b80d6-39ad-4853-86d3-08861b8fed6d
p1387
aV697865cc-968f-4751-8e31-b1006645b248
p1388
aV69b19a72-0bd7-42fe-8f2c-66aa218de26a
p1389
aV69c2dc31-6a9c-48af-8c2c-6d35544e99b5
p1390
aV69ca450b-beeb-48a3-8685-b2d20e5432d4
p1391
aV69caf244-6452-4549-8b39-316ef9f3e606
p1392
aV69e68757-3608-41ea-856b-3b8b7d1b4167
p1393
aV69f46d8b-f277-4199-81bc-9092b2450969
p1394
aV69f9c3f0-bc3f-4172-8656-570730683d22
p1395
aV6a081c7e-fd75-4025-894d-645e168199f7
p1396
aV6a130379-7913-4ef8-8a83-3fc32e7115e3
p1397
aV6a306d89-6e81-4dca-8ef6-a3131284cfb3
p1398
aV6a40062a-13dd-420f-8848-aefdfd400b48
p1399
aV6a5d9098-f8bd-4b76-82fb-7081d617d541
p1400
aV6a6246db-4f45-4c29-8f3e-452fd81a4b93
p1401
aV6a8590dc-a435-4c87-871a-94c7c022cc66
p1402
aV6a955003-220e-4119-810f-37aca1ad6754
p1403
aV6aaa2fd2-8556-471f-81d4-77ea42814aa0
p1404
aV6ab5946f-0a6f-4460-8625-1290ce191caf
p1405
aV6abe7d9a-4299-4d16-89a4-c5ffbf935de6
p1406
aV6ac951a5-7af5-4a8d-824f-5228aa065748
p1407
aV6ade9e03-2fbf-40ec-84f4-1f209d71b735
p1408
aV6af89c2b-abef-43f7-8a89-8decf8ec5d97
p1409
aV6b04f0eb-04dc-49fd-86a7-687c0d33a3cb
p1410
aV6b0c3653-4657-40ca-8cfa-4747d323191f
p1411
aV6b0e2207-bcde-4b45-839b-e070e2ad082c
p1412
aV6b13adf2-ebdc-4c61-89e7-7f0762024574
p1413
aV6b2b5615-9602-4816-887c-de3dfd62c0cc
p1414
aV6b2ff379-842b-4329-842a-ea24fab6e630
p1415
aV6b347fa5-06e1-4000-80fd-20d1fb842399
p1416
aV6b402b5f-1101-4120-8228-24b79087f7ed
p1417
aV6b5ed34b-192c-46f0-8788-6a9c26f9e5e9
p1418
aV6b656137-0eda-4e1b-897d-a0a3b69c1840
p1419
aV6b66ef60-90f9-4ec9-85ca-8a676a2cbe8d
p1420
aV6b674773-5993-4fd9-831a-79b410dc4f82
p1421
aV6b681fe9-0a16-4d4f-822e-d019f346d0a3
p1422
aV6b6ddaa6-167b-43b8-8bdc-dd9d149e022c
p1423
aV6b7d3192-87b9-4968-8333-5b8080167094
p1424
aV6b86b17b-a824-4781-86ef-1fda1ff82624
p1425
aV6b89d9dc-3bb9-4864-8343-e96586aa7b26
p1426
aV6b8ef1ba-f15e-4770-8da8-673786fbf818
p1427
aV6b8f7f93-fdf7-49c2-87a3-77e5046a6fbd
p1428
aV6bb04b3d-d804-49cb-8edf-c866f36cb746
p1429
aV6bc65fad-92f9-4628-8414-819e8bfde56e
p1430
aV6be0f213-a40b-496b-81b0-d27fbd0e8be9
p1431
aV6bf68786-4fc1-49d5-8535-4134b172b157
p1432
aV6c03be5b-fbee-4e78-855f-17ea7ffcfcf9
p1433
aV6c21a3cf-ff2f-4a82-856d-19708d446bfb
p1434
aV6c350840-94c6-4559-854c-94fe95885ef1
p1435
aV6c35a58a-b434-413c-85d6-9ffb70deabf9
p1436
aV6c3c44fd-bb2e-4d47-85b6-fe6545961802
p1437
aV6c4315ae-97eb-42c8-8e1a-6c8534cff67d
p1438
aV6c49abc7-871b-4fdb-8a79-91115880dd49
p1439
aV6c56082a-f550-45cc-8e86-fdbe4d50610d
p1440
aV6c7a8e65-1648-4a03-88f1-8768768fb897
p1441
aV6c7cd778-1c1d-4baa-8280-2ed4e8d50c5e
p1442
aV6c7d65b5-32bd-4122-8f84-c06fe04d74a9
p1443
aV6ca0f8ae-6aa1-4589-8a93-0832e38e5e83
p1444
aV6cdbc513-6571-4d71-8eab-4660f5d44932
p1445
aV6cde0dd2-8434-4be2-8dbd-6df8b34f01fc
p1446
aV6ce3e584-e65a-402a-8716-18b4244bcb7b
p1447
aV6ce8dac2-238c-4425-814b-617b2cfff2f1
p1448
aV6cfabdeb-ed95-40ef-8bd2-42ad54eed83b
p1449
aV6d06752b-c4a3-4f74-8d68-e18051a1428a
p1450
aV6d06a7c0-31c6-41b2-8541-67004f84a408
p1451
aV6d0f497c-8aec-4b24-8de6-9da3ca9adc42
p1452
aV6d130b68-d2d4-456b-892f-b4202a5f5f60
p1453
aV6d2203d0-9222-4d44-8a56-d90bd511bd3e
p1454
aV6d60e6ba-f275-430a-8aae-d8b5ac3af817
p1455
aV6d7961f0-895e-4c49-8d7b-c48ba24d1b38
p1456
aV6d91c7d0-eeb2-4ac3-8adf-3b680a2b3176
p1457
aV6d98bd92-940f-4043-8e60-eb6ece29abd5
p1458
aV6dae7ba7-c39d-43c1-84b0-e2bbc603fc47
p1459
aV6dc1ceef-9678-481d-8eae-0ce4d8d7475d
p1460
aV6e051d7c-37b5-43b6-8265-aadefafbabdd
p1461
aV6e12a6a2-6035-464f-8860-2c8e99fc336e
p1462
aV6e1ab9b2-aa80-4e51-82e6-b50cd9e5db50
p1463
aV6e242dc3-0483-44ab-82b6-ec1c2054d817
p1464
aV6e5eb753-76e0-4d8a-893c-b7832a0fd671
p1465
aV6e7c57f2-f56f-4729-827a-a79341077d36
p1466
aV6e872f6d-fa8b-451c-8180-de9f0f9cf098
p1467
aV6ea2451d-3208-4a38-86c8-cbf4593bd843
p1468
aV6eaa7aab-6a71-489a-8aff-bb424869f04c
p1469
aV6eaec00e-f482-4401-80f1-3fdfbbb55467
p1470
aV6ec19250-d2ce-450b-88fb-409f502241cd
p1471
aV6ef20cb1-d547-40b3-8c22-42bb675a14f0
p1472
aV6efd696b-b6bf-46e9-8272-750bbef05cf4
p1473
aV6f379a9a-f822-4aff-8c4d-a6e722b674fe
p1474
aV6f46b193-e630-4e64-8e62-493d1653d124
p1475
aV6f47709a-d9fa-4723-85d4-e81a4f7fa16d
p1476
aV6f487097-b2bd-4940-8467-39ddaa4b54e5
p1477
aV6f61b495-cb70-47c8-84c3-2f1eb16c8ecf
p1478
aV6f6634f0-6421-48f7-862a-c01b2ccbdfe7
p1479
aV6f68bf26-1f8c-4536-8827-19e94c1d1234
p1480
aV6f6f6c5b-8cd9-4355-8e15-fe0cf9bb12dc
p1481
aV6f7fda1b-6a2f-428e-8d28-960a5546cd2d
p1482
aV6f96939e-aede-49f2-8187-30564789680a
p1483
aV6f9b52a8-cc5a-45c0-8c07-1da5872bd253
p1484
aV6fa2495a-10a5-471b-83ee-8cf532e6fbce
p1485
aV6fabd741-4495-445f-80b8-e04198a02433
p1486
aV6fc3af9a-5237-4b80-8efa-a8dce1fb497f
p1487
aV6fc9d0be-70b3-4f8e-8f4d-a638aba25bf0
p1488
aV6fc9fcff-4476-499e-8c9e-e2d829e2d052
p1489
aV6fdd3a96-617e-4fa5-8c9f-4b22a654508a
p1490
aV70170c38-5180-4098-8831-829ab067cabc
p1491
aV701f141e-68e5-44f1-8be8-0b87bbcb7717
p1492
aV702af8f9-1d35-4af1-8a31-8454fc7fdde6
p1493
aV702d9b27-942f-4ecd-83ef-78e52e5e34cd
p1494
aV7045c2ec-8c4f-4e62-8427-a0e6ad9b9946
p1495
aV7049a817-fc4e-4f3e-8762-84c7eaca8742
p1496
aV709c10d5-afe1-4f89-8108-3e4a408bb633
p1497
aV70bfb425-5a8b-4024-80b6-49f203bedb31
p1498
aV70bfd9d4-4dcd-4bdc-8b6c-1aa14904c9c0
p1499
aV70c3868b-cc75-4909-8b02-f3ed671a0265
p1500
aV70cd2a01-6073-4802-86ec-137e84187ed6
p1501
aV70d77ba8-7716-4b6f-896c-891fc64309d9
p1502
aV70e028fb-4d66-4f10-8e83-896227e13ec6
p1503
aV70e8b879-22c0-4e48-89cf-85ae6106749c
p1504
aV70ea148d-cf05-4bf2-8ad9-5cdd1aa3d761
p1505
aV70ea350a-16e6-4231-84e7-df0f978e8262
p1506
aV70eb5d14-2865-4bff-8d2d-a25a9f003583
p1507
aV711582fc-a100-4f28-8f32-a2c5b1cbf385
p1508
aV7129b26b-dafa-4bbd-8a77-ca70176d21a4
p1509
aV712bb5be-a143-443d-8bac-d691f8625326
p1510
aV712ebc2b-0843-474e-8622-989bd39f8bc6
p1511
aV7131489d-1fd8-4678-8311-244e02f00856
p1512
aV7145082a-3286-4d35-8ec1-43e69b97bdd7
p1513
aV71845347-2bab-41d8-89cc-55b32d35db72
p1514
aV7187b613-1196-494e-8c4b-46a9bffe6dea
p1515
aV718a291b-ee0b-460d-8665-5577914bf65d
p1516
aV71cbb8a9-20fa-45a8-89dd-a162f9202b6d
p1517
aV71cc72dd-d417-472a-8f62-eea937633063
p1518
aV71dacc90-abc7-4188-82dd-9ae2d888bd94
p1519
aV720592e6-118b-491f-8b92-8daae1c9c160
p1520
aV72356b1f-044b-4054-8e31-bdd4bb68ee8c
p1521
aV7246ae50-da17-470a-84a5-1c6da5d7b111
p1522
aV724cd860-a69b-4d61-8e77-c7bf732f4c06
p1523
aV725c775b-f421-4692-8465-4d514e2eb447
p1524
aV72654e22-dd44-41b5-86ba-5aadb614b596
p1525
aV726cdce3-35c3-4f37-856b-7c8dbae488f3
p1526
aV7271f393-608f-4e99-8553-3dea1a8dee75
p1527
aV7287a559-7573-403c-8f9a-38e26b55e42f
p1528
aV7296eb1c-6bee-401b-84b5-1d64eb06a2b1
p1529
aV72acead1-4e71-4ba7-8d97-077276cb9ba1
p1530
aV72b1b481-1fb5-4da5-88a4-16a1c15b8f25
p1531
aV72bbc546-e68d-42c5-8a80-b18ada5b0250
p1532
aV72e11109-c666-4ed4-89d0-655cf8753b33
p1533
aV72fe9ddd-8e34-480b-8bcf-547b4d72bf4a
p1534
aV730aa929-183d-40bb-8352-ef257791e6d5
p1535
aV731a593f-e498-4a82-8de4-544fa21682e0
p1536
aV7329d398-71a7-49db-8422-77bb40ac455c
p1537
aV733fc530-8e61-4b26-8afa-dc018ec6cb76
p1538
aV734aefe6-6558-4681-8801-794d99e08dc7
p1539
aV7352c431-c744-4d6e-8251-0b51505d63d5
p1540
aV73584161-ca61-4226-8cc5-a529c5355cc8
p1541
aV736851d3-7aec-4e3f-8247-2241aa1e825f
p1542
aV736d7283-2e0f-4e72-8e87-148b4456d5f3
p1543
aV73764009-395a-4fc6-856f-735dbeedbeba
p1544
aV73837d15-e5dd-4152-8bc3-0f304cc5936d
p1545
aV73881119-a601-4ec0-855b-88441e9dbaa4
p1546
aV738f6b6b-5804-4091-8038-57dcfdc7c675
p1547
aV7394c972-3131-48b1-84e1-4dd73d90ff8f
p1548
aV739cbf70-ec72-4786-8eb0-01409b56b162
p1549
aV73c931fc-6953-4f46-8d63-3c9624b3c85d
p1550
aV73d47fec-b916-4653-84c6-45bf332f58a5
p1551
aV73d62418-d6ef-4dc6-8df3-335d2499c142
p1552
aV73e18029-33f0-477c-87aa-bfd404057f30
p1553
aV73e6c32f-abb1-47cd-843e-0078b5d93b8f
p1554
aV74022af6-30de-42fb-84b0-645cefbbca1f
p1555
aV74256131-ceb2-4196-8c45-bafe27cb2d1a
p1556
aV7438c9b8-9c09-4ed3-88fe-b38316817037
p1557
aV7447bf0f-d63c-4f4a-8ecf-a917aec11106
p1558
aV744aa002-1318-4b43-8ffa-2f1946edcb0e
p1559
aV7452b728-8b4c-45e8-8d51-a98c7469dbc4
p1560
aV7458ccb8-bb6d-4d88-8d6f-4a6935c24d74
p1561
aV747e443e-e306-408f-8266-4086cb284e3b
p1562
aV749e6aae-4e59-4549-8e83-b8abe54284c3
p1563
aV74b244fa-274e-476f-898e-e50d67b432cf
p1564
aV74b36463-8542-4141-8180-31e47f2e42f5
p1565
aV74cc64fa-3ddb-4e56-8a88-d3612f813f0a
p1566
aV74f52bcd-1397-4078-8238-c121c150caa0
p1567
aV74f9f62c-f9ce-4431-824a-c9f6c1ecf908
p1568
aV74fea210-db17-4ee9-812c-2c60e9e37cee
p1569
aV751b3212-9303-45ec-86a6-607a0d84a164
p1570
aV754538b9-7eae-4391-8d67-3ba9ffc27176
p1571
aV75591e0a-a057-4585-831c-2a80c290e50e
p1572
aV75662878-2498-4590-88d2-d51191220708
p1573
aV75723793-b704-4fba-843b-72e6ff88737e
p1574
aV758afe9a-ce5d-4605-8260-4e68747bb3f2
p1575
aV75905459-9db0-4b14-86a8-b4db2fc8945b
p1576
aV75943736-2faf-41ab-8daf-100333bce683
p1577
aV75a6e8d0-922c-4193-855b-71327c7bbeb3
p1578
aV75aa1725-200f-4b72-8cee-7718f6736b31
p1579
aV75aafcda-7da3-48b6-83a8-e05cc3944a19
p1580
aV75b720b3-1049-4b93-8fd3-b56b7e6fd138
p1581
aV75c11f6c-8eb9-4e72-824f-d109e4fe3d8c
p1582
aV75cb7a1a-4364-4eec-8e65-a10febd30077
p1583
aV75e80c74-dc64-4a06-8f9a-7b044b674eaf
p1584
aV75e9858b-549e-4dda-82a6-584748a9baad
p1585
aV75f198a5-4d0c-4a64-89d3-646849f22326
p1586
aV75fdaef2-76b2-40f2-86ae-dc93cfd410f3
p1587
aV7659cbc3-5f4e-4cef-8a74-68716d9f9381
p1588
aV769a1437-5bb4-4f7b-895d-970d5f398481
p1589
aV76b8c086-36ee-4c08-85b1-2671d6247305
p1590
aV76c05c1a-af05-4a97-85ba-ac2db6db53d4
p1591
aV76d0aba6-985c-4907-8379-2ce053bf11a6
p1592
aV76d34b65-7f97-4d98-80a4-641fceca85bb
p1593
aV76e7af79-b1ba-44f1-841e-7d27384425fc
p1594
aV76ee9672-eca2-4c5c-8626-23f0a655290d
p1595
aV76f600b3-6591-4003-8c2e-0d5d49515c16
p1596
aV76f6b451-dd41-4733-8ecd-5f5f619e7bfd
p1597
aV76fb02c3-2459-4ef0-88c9-2320298c6361
p1598
aV772edbc7-7a55-4416-8aea-f3a470bd0055
p1599
aV7730797f-8422-40a1-8cd9-587fe859142c
p1600
aV77570a67-94e1-42a5-8740-cae1a341e22e
p1601
aV7797a8d8-eccc-4d76-8f96-4e1ffd484bf1
p1602
aV779c5717-0cc2-486c-8bfa-63179be97079
p1603
aV77c1938d-2a4d-470d-8604-d0615fcce792
p1604
aV77c654c9-bd20-4b3b-8657-2ed3594f81f3
p1605
aV77f73b5c-ab1a-4ab7-8d1a-237fdeb074f6
p1606
aV77f8be29-81a3-437b-83aa-74abf7f8d2d6
p1607
aV77ffe09d-edfd-4b56-8ac2-651daa310664
p1608
aV7810f961-72c4-46b8-875c-88790e3bdf45
p1609
aV78278850-fc6b-42bc-827f-1bb30d6bfa5d
p1610
aV782db0eb-4e03-47c1-88d7-f1029e488536
p1611
aV7842b386-e740-47bc-80de-6fc29af6dfec
p1612
aV78531d08-f0ed-4bc5-89b3-1b8243cdd37b
p1613
aV786f6d64-4376-4314-8737-19a5a12cbe54
p1614
aV789b6763-89e9-4978-88c3-6f4e96a7c73f
p1615
aV78b4cfd2-2ca7-4e03-816b-a8c41e3aaa04
p1616
aV7902931e-8bcc-4886-80b5-5539464f5750
p1617
aV791b8f49-b779-413a-8a76-95e1d5fdc96c
p1618
aV79386c51-7c1a-46ff-8bf1-c6f0ba552d85
p1619
aV7944c171-1f60-48e2-85e6-cf34087768c7
p1620
aV797081e5-3b08-4348-8f40-3d22224922a4
p1621
aV7971c243-a115-4f05-8c51-2c2062d6a4c4
p1622
aV798c6a1c-5649-4cb8-8870-eb51fc639a94
p1623
aV79a2e2e0-32cd-4d84-8f82-db42a4d63c16
p1624
aV79ac19db-f301-42bd-8c4c-59be183c00c9
p1625
aV79c1b441-cd14-4d1b-8e49-bd99c0182e00
p1626
aV79c84f0d-f4a6-47a8-8903-3eea1436d419
p1627
aV79cf0edd-4546-4cfe-8211-875272942b4b
p1628
aV79f69d3f-476e-4c2d-875c-e10dc00a9d58
p1629
aV7a03327e-df13-4d8e-8aa8-ec8f6ca04f23
p1630
aV7a06ee5d-ce0d-42b1-873d-66bfaa888854
p1631
aV7a0d6169-00dd-4a57-88bb-84b07f9a7bb4
p1632
aV7a1f31a2-0fb4-4e9c-8af1-0076c0c5ba53
p1633
aV7a641b40-930c-4b65-87b2-f6ff68048610
p1634
aV7a7f7293-2334-4713-8748-3cfd8af10c62
p1635
aV7a9b881d-8bdb-482e-833f-80c69cb87e9f
p1636
aV7aa72fe2-9004-4543-8ca1-eb9bfe459587
p1637
aV7ab21c4f-18c5-4e77-8a29-518d08d34f35
p1638
aV7ab73b04-7f1d-4251-82b3-831b094f5830
p1639
aV7ac99e73-207e-435b-8f9b-78132f0a7c8d
p1640
aV7aede3cc-aa04-4430-82ec-85db235f0003
p1641
aV7b2c5e5d-1cc1-4d2b-8c8c-46cfd4669e60
p1642
aV7b2ccd95-34ee-49ab-8d8b-3effa7063df2
p1643
aV7b3d767d-b7ff-44bb-8529-32c3e872c2f1
p1644
aV7b48da34-7425-4d6e-8ff3-87b0d2e8db0b
p1645
aV7b58e2cf-5cbc-48d2-8e86-a2ec22704a06
p1646
aV7b6474b0-e90e-45bf-8848-a23d240a1b90
p1647
aV7b9b2057-a48b-41a1-8488-e21efca3f5ca
p1648
aV7bc93a28-dd47-4289-82a9-13efae4d1b71
p1649
aV7bd0ddf3-8904-4a75-8eb6-578ec10957d3
p1650
aV7bef6506-b1e6-4635-8013-bdfa9e44f788
p1651
aV7c032388-8044-43d6-83f0-eb785e9554fc
p1652
aV7c13650f-9239-4904-8e09-a9b2ec412cd6
p1653
aV7c4718fc-780e-42a4-800c-35a67cd48947
p1654
aV7c4c5ffe-9782-48fe-88ce-b895de4df83f
p1655
aV7c7227f1-01b2-4797-8d7d-e2d6fca307aa
p1656
aV7c79f3dd-f785-4bc7-8356-b6a2fd9d57c1
p1657
aV7c7e2c44-3cdf-499c-8a35-c849aaa4b20b
p1658
aV7c80c930-1d62-442c-84f2-e5f3ab6b072d
p1659
aV7c93c0c5-b393-46ce-8758-1e8aa69f6ccd
p1660
aV7c942461-15a8-4e77-806c-92f3a1025d53
p1661
aV7cac256e-e6c1-44bb-8669-8d9ae6e8f62e
p1662
aV7ce5e7d8-fc1f-46bd-8e7b-f4292b0c2a25
p1663
aV7cebd231-f822-4dd4-800c-9938d3ad2fab
p1664
aV7cf97025-10b4-4b29-83c9-c2860e696872
p1665
aV7d143f0a-dea4-406a-8eee-7dae4885590a
p1666
aV7d1835c2-6e0b-4288-8112-3c1e972d4f77
p1667
aV7d2f010e-290d-410d-87ba-712f7ec93c92
p1668
aV7d30c6b7-8fdd-4e2c-8680-3cff3ab92285
p1669
aV7d6c0eb2-ff75-4f86-8396-fc8d395c3f84
p1670
aV7d7383a9-39c7-493e-889f-acbaeaa305e2
p1671
aV7d76bf6b-39b6-4ddd-86d9-091f6ad221c9
p1672
aV7d83ff33-5902-40f5-827a-fa6ff1cf055d
p1673
aV7d8ffaef-330d-43d4-8f54-3ae632dcc989
p1674
aV7db08d97-fd0f-4fc3-82f9-ab18862722b5
p1675
aV7e05dade-f31e-4efd-8b2b-2c678787fe93
p1676
aV7e083ffb-b189-4bb6-8baa-3e5586072b0d
p1677
aV7e1b8764-b678-4bb9-897e-1e3dca8a76f3
p1678
aV7e32fe67-3d84-4797-8253-4f43cd4f0dd8
p1679
aV7e4278af-9c96-4c16-88d7-a0c1c7a7dcd8
p1680
aV7e42917a-f151-4c0c-83a0-abf5437a83cd
p1681
aV7e6608a9-4aa0-40f4-8f51-cc06f1a0cf90
p1682
aV7e706654-dbcc-483f-8725-30e323928f2f
p1683
aV7e89afae-b8b0-4d96-85da-ab199ca33f09
p1684
aV7e971878-313c-4a5e-8e09-e4416e0aa4fc
p1685
aV7eaf96a8-f464-4251-8ffb-dc30bb44a554
p1686
aV7ecbe631-09f4-429f-8ecf-5e895cb32f32
p1687
aV7ecc57a8-7893-4516-8b80-2ad0c792601c
p1688
aV7ed8d72e-71e9-478e-8d0b-173b67a0752a
p1689
aV7eda925e-c98b-4d2f-8d16-2b0c577acacd
p1690
aV7eed99fb-34f1-4543-88ee-4e9301f417f3
p1691
aV7f0db3d5-4356-42f8-82af-bb15302a615d
p1692
aV7f30344c-7db8-4661-884d-b06b69c39314
p1693
aV7f45a038-9007-4d06-888c-eee96a68907a
p1694
aV7f493db7-cb23-4a96-8f64-b6e2825fa958
p1695
aV7f5d41d6-695e-4b07-85de-7fe079691572
p1696
aV7f620ce0-4d40-41c6-8e66-f0771619d256
p1697
aV7f7e158f-8e09-4b21-8aa8-ccf21e28cf5e
p1698
aV7f969281-2945-472f-8e42-f09b5ead1433
p1699
aV7fa30640-7044-435f-8667-615066efcb59
p1700
aV80057d00-d482-4ed8-8a28-c6fc54cc4690
p1701
aV804fdf29-8dd9-4092-8c85-48ac56905468
p1702
aV805543fc-5936-4052-87aa-51064fe6bf08
p1703
aV8066251b-9c1d-45df-8721-9e3113cfdaa6
p1704
aV806cddf9-3fca-427f-81b5-e6b887605092
p1705
aV80828504-bd92-4080-8e4a-f16f1d1ab737
p1706
aV808dc8dc-dff5-4263-8a3b-7ab69d12e6a7
p1707
aV808f5a94-862d-4320-8fd7-823f883b68af
p1708
aV809cb564-ecf8-437d-83b5-03bee51da4a4
p1709
aV809eef47-8e61-4579-8417-ee2625489c69
p1710
aV80b331bb-833a-46b6-8b16-d8187b1f9fd3
p1711
aV80bb230d-6283-4beb-8d7f-c61b2fb6aff2
p1712
aV80c74f28-2560-4ade-862f-25136e3a28e8
p1713
aV80e27136-6290-4038-823c-3c3d66e8738a
p1714
aV80eaa3f5-b219-4ee3-8993-dc8ffda8fd7f
p1715
aV81069b0f-6563-4427-8c22-45db3c0968d4
p1716
aV811121bb-ace5-4e97-8e32-4e9561779c9c
p1717
aV811e10bd-32c1-4794-8c81-c4a0491cdc05
p1718
aV81394365-3e9f-434d-8176-ab6f0193aab8
p1719
aV81405d45-a600-4be3-8353-3911604f174b
p1720
aV817ddbf4-feae-4abb-89e8-148d22bbdfa2
p1721
aV8195c4e4-caba-4002-8ebe-2b4ce8d2c0e2
p1722
aV81c132c3-050a-46f9-8e45-ee62e4a24d1b
p1723
aV81c8f5ca-749a-4dc3-8700-a9cdb19e7b81
p1724
aV8235ec4f-4940-4339-8d0a-45480ba5b9b8
p1725
aV825e2721-ebc3-4b77-8754-ce2076ed0007
p1726
aV826f675e-80f1-4ef4-8ab4-00952e53b2cc
p1727
aV82b3adc7-72a6-4b74-8513-177e6d5fb333
p1728
aV82b42d18-ab30-402f-8edb-7a96e8a69b83
p1729
aV82e2ad09-1375-4fd5-8e9e-7715d4c85cf4
p1730
aV82f3f7e7-b3f0-410c-8569-f80ca682303e
p1731
aV82f5418a-2ff3-4ef1-8d1f-de2d05c83ed2
p1732
aV83349315-ef23-4541-8687-f79150278036
p1733
aV833ea0a5-8c94-4b03-87e8-71a0d57e918f
p1734
aV835fe86c-a439-43d3-8c4c-027f241e6954
p1735
aV8365f33c-1054-472d-8bf7-64b7c3d78c48
p1736
aV8368df4c-db03-467d-851b-016bdc8a842b
p1737
aV83ad1f7f-a2d6-41d6-84f4-a51d08f83cf1
p1738
aV83b88fbe-b2e2-4dc3-8bb1-a0f6c6d61f12
p1739
aV83c7f8dd-3658-439c-8825-7ea81a2b0f0b
p1740
aV83e7c88c-31f5-48ed-8353-674947624c0e
p1741
aV83f01c31-1298-4024-8a6c-7c0e005addb1
p1742
aV83fe98c9-4966-40bd-821d-ab7aba31d8a1
p1743
aV841747ac-0bf3-41fa-8e30-f07612f45a51
p1744
aV8447fcdd-84c8-4e98-85c7-98048142575a
p1745
aV844c0a59-bac7-43e4-86b7-3e9051b3dad9
p1746
aV8472f8b6-7451-49db-8ded-79e67acdde62
p1747
aV8494e956-559f-4a99-8e93-df91f9ee2cb5
p1748
aV84af187c-1399-4c75-869d-20257d3bd1d3
p1749
aV84af460e-92ae-45ef-8db1-47efbf383a05
p1750
aV84affd00-c33e-4d14-84d3-7e39d95ebb51
p1751
aV84bd70f5-4eac-4382-866b-68faa820a326
p1752
aV84c2cd81-9f84-4abf-8279-06b5203d7164
p1753
aV84ca303e-9c04-489c-8506-c3ec2c79a29c
p1754
aV84dfd627-9d3a-48a7-8253-8f5b00abfaa0
p1755
aV84f59a13-678b-4b90-86d8-89cad50f9af0
p1756
aV84f8fc5b-7051-4408-805b-53fd3ad9fb8b
p1757
aV84fef5d6-3567-4a24-8f81-52d41a9cb659
p1758
aV850d2cf9-be9c-4205-8693-b058a5be4359
p1759
aV8512b351-0fed-416e-8a62-0ba22beb10a5
p1760
aV8518b2c1-85ee-4a17-88b5-1109ae942662
p1761
aV85310d9d-8810-4396-8c71-67a092686d19
p1762
aV8551b821-e5da-4c30-8096-915ceb420cb3
p1763
aV85580ec5-fcf6-4ddc-866d-2d7f2fd62e1c
p1764
aV855ac206-a705-440c-8e00-b8ee3f59240f
p1765
aV8574f3d0-9966-434b-828c-649463030742
p1766
aV857c77f1-1e01-40c0-8c84-301d5ccd4336
p1767
aV85941048-44b1-4051-8e32-85a437e0eb34
p1768
aV85a2ecf1-bbc7-4473-8b24-ef34e20ee007
p1769
aV85a7348d-2d30-4780-8d3c-fabcbfd6c9ed
p1770
aV85a7c5df-8702-4cf4-86bb-7a95b26d3412
p1771
aV85b65d69-22cd-4978-8217-aa2f88d9a9a3
p1772
aV85bc9419-73e4-434a-82d4-59ac5e7432b1
p1773
aV85bce4ef-11f9-4829-8221-003bbf6418f5
p1774
aV85c6e542-194b-4180-8d99-bcff8a6e8176
p1775
aV85d14b60-b609-4d5c-83d1-c77a9b62bbc5
p1776
aV85d36e29-afa0-453f-8d70-c50319fcb429
p1777
aV85e3bc48-f5f4-43e9-8c34-69ff9c85fc71
p1778
aV85e4a850-9b59-443a-80c9-804abebe7aec
p1779
aV85ea8a7a-edb4-43f0-83e6-906010d7d91e
p1780
aV8664d5c5-bc27-4425-87c7-6399c256a56b
p1781
aV8699219d-6383-4ca2-861b-1786bad8cdb8
p1782
aV8699d0a4-9988-4b62-80a0-39cff939f99f
p1783
aV86a03725-db25-4d11-8116-587c1d870fe6
p1784
aV86a1a8c0-35be-442c-8f6d-a8a611367975
p1785
aV86a81bf9-c1ce-4aa7-86c3-41b1b9de75ef
p1786
aV86b61a9a-7663-4008-8df0-198ef5fa2a82
p1787
aV86b79e82-bd20-4aa7-84d1-35a580ce65a6
p1788
aV86c10acc-e26c-440a-8f81-bc7f7dec3738
p1789
aV86c9a9f3-75a2-474f-8f0e-508c78752faf
p1790
aV86de413f-3032-4a30-8922-eb45aac170ee
p1791
aV87010fb9-3d4b-4169-8415-b6ee3a80225a
p1792
aV87087f2b-2e0b-48e6-874b-15cb8e80b18f
p1793
aV8711518c-1eb7-453b-8087-5303e9244c13
p1794
aV871419e3-196f-4cbb-8e4b-c33f0d79fedc
p1795
aV872e15f6-c8fa-467c-8189-21f38b3b14e5
p1796
aV87343e72-a842-4e43-8640-45e979d842e8
p1797
aV873745fe-ae08-4837-8547-46d78582718f
p1798
aV8749f53e-d084-4443-8161-e0ef848aa06f
p1799
aV87546608-2985-4100-86be-5d66c59be46b
p1800
aV8763bfa1-1cc4-4957-8d0a-724d3bec6c68
p1801
aV8781680c-dc46-4374-8c43-dac8d86c6659
p1802
aV8787a0ce-c569-45d9-8e9f-ba59c8a23af3
p1803
aV87b5a796-f9ae-4dd5-861d-b007db1a9b8e
p1804
aV87cda45e-b792-4a4d-8759-b09b7fe73244
p1805
aV87e26eb8-8ee4-4282-8f4d-3b81fba871e6
p1806
aV87e5c529-f087-46ab-81d6-72a761b3f8a8
p1807
aV87ea6360-e37b-4be9-8fc2-1dd73c45db4f
p1808
aV87f05210-3795-4e65-86f8-56a3453d2bf0
p1809
aV87f8f32b-8365-449f-8f84-4d9963b588e0
p1810
aV8802d1f9-1224-4cd8-89cf-3079b96b28db
p1811
aV882e5ed2-1b32-45fb-8db4-06fd3f33ff73
p1812
aV883b50d0-6472-432b-869b-575dba50e28c
p1813
aV883fc81b-ec6f-4479-8800-3afd14bb83fd
p1814
aV884d559d-c03b-403f-826d-3e1b23712e98
p1815
aV884ec516-f761-49e7-87ad-a545eb22dde9
p1816
aV88599635-dcfe-4864-8c33-acb33d94087f
p1817
aV8883fb91-4097-40e1-8e8c-b46382e086ad
p1818
aV88ac02f9-4db7-4aba-8fb3-284400e1d025
p1819
aV88b26545-5dd2-4426-8cf2-94dd85f9aad9
p1820
aV88c3ef01-838e-44f8-88fe-cc3f0bb3e7a3
p1821
aV88e4b3fe-81fb-426a-8239-e0588aef2a41
p1822
aV891eb66c-d501-4892-8df3-b4e51e38ca3d
p1823
aV89224765-dda3-4a63-899c-f8b25d83aa81
p1824
aV892533ef-27a8-4f47-82c9-955bd52faf94
p1825
aV89295459-a6d7-4e5d-8c94-8f4a52ed79f4
p1826
aV89547aaa-719e-4d35-8445-06057ad01bb0
p1827
aV89556313-8984-479e-8f64-cd4819604c2c
p1828
aV8955e8e7-cb41-4e9c-8869-117ed05caba6
p1829
aV8972d240-d5a8-4767-81bb-7c3aa95e2910
p1830
aV8977341c-84fa-44f3-8062-2a58b42c8c89
p1831
aV897b4f1f-2da2-4e4e-8763-8a9141db47b0
p1832
aV897c79e1-9cfe-4252-8f2a-b9e050f9ea7d
p1833
aV899c0fb3-5bfa-4ffe-8a98-0e892a827326
p1834
aV89a6ff0e-dd2a-4456-88b0-45fbfd2d8da9
p1835
aV89ae0d27-4c8d-412c-8a0e-555a14d1780e
p1836
aV89c93e59-d685-41e0-8cfb-b33662e16941
p1837
aV89eda160-fdf7-4701-89fb-b2281c1480d2
p1838
aV8a2fc1c1-3033-4ae9-8df2-6074efdb7b61
p1839
aV8a311740-bfa2-407e-8ae9-a94488f7c857
p1840
aV8a37adf7-ca59-4839-8c79-419768ecff01
p1841
aV8a468174-ceeb-41ff-8970-9e816b0dd017
p1842
aV8a49828b-0768-4a21-8ae0-ceee86bb9d31
p1843
aV8a6343c0-a242-49d1-8dc5-309de188fa84
p1844
aV8a6fe338-33f2-4251-842b-a3c2c237af77
p1845
aV8a70cfb9-12e8-410e-8df5-3c0bdcfdd45b
p1846
aV8a8e3579-f7c9-47fb-8cdc-1109f720cec0
p1847
aV8a8ed463-c539-4393-82ca-9e47abbfb966
p1848
aV8a905ddc-a008-4079-8e6d-fb2122277a7b
p1849
aV8a91ad7d-d7c8-4c6c-86e5-247f68ae1521
p1850
aV8a9419dc-f405-462a-8049-fd49d60e80f2
p1851
aV8aa9b11c-0820-4960-8f0d-8ad94053d73b
p1852
aV8aa9d65b-0fc1-45c1-81c5-2211676525d8
p1853
aV8ab7db84-e76c-4a73-844f-1cd1ef0ef2c8
p1854
aV8ac7cc1a-7a7f-4f2c-8772-23cff27855dd
p1855
aV8ad1ff1f-1891-4440-862e-51ea10c9e69f
p1856
aV8b1eecf3-77f3-4073-8fda-093cc30412f5
p1857
aV8b205ce0-50cf-4884-81b1-53450af79504
p1858
aV8b218a18-74c3-4d7a-8959-191259872927
p1859
aV8b53b3a9-84f5-4a52-85df-99d43ae57650
p1860
aV8b60e78a-961f-449b-8f69-97299d2b10e6
p1861
aV8b6903cc-2dfd-4ab0-84d8-5bdd8bc71ba2
p1862
aV8b95de64-41ec-453f-8a43-323627ac8415
p1863
aV8bcc6fdf-8d52-4b52-82a0-e43030e1f062
p1864
aV8be69d17-c227-4de3-8040-68b590764dfb
p1865
aV8c007a17-7da1-4ee6-8fb2-8d716eccb7f8
p1866
aV8c12b9ba-d9b5-4fd8-85f7-a591685e832f
p1867
aV8c5c5a19-5f80-48e0-844f-a1945160b4a4
p1868
aV8c814ae9-98e7-4eb6-82a8-4222b2625bbf
p1869
aV8c8e8dfe-0634-4bf8-89e5-15201aebb2f2
p1870
aV8c96974d-f0c8-4582-82a0-12a12ace30bb
p1871
aV8ca2d169-d451-47e4-8eea-00bc0a543332
p1872
aV8cbb56b2-4516-475e-8e69-e2b998987a1c
p1873
aV8ce204b8-2992-4ae5-8fda-471efc5c1ea8
p1874
aV8ce4db8d-a0f6-4949-8bac-201b031ee558
p1875
aV8d2e8ad6-bcdd-40b0-86fa-9d97088a72ca
p1876
aV8d663521-f410-4de4-8d71-4e7f5b42b178
p1877
aV8d79bf18-f078-4285-831d-885a87a1d504
p1878
aV8d79df89-6976-4388-87bc-d879054a43a4
p1879
aV8d876c08-fc8f-4534-81aa-fce95af4278b
p1880
aV8d94f340-0ea1-48b8-86cf-38f37342c13d
p1881
aV8d988e1f-01e9-49bc-8ab2-93d392a6298a
p1882
aV8dbcd295-ae98-4965-87ce-14e6b2023624
p1883
aV8dc9e841-d180-4e67-8839-ba85f23be011
p1884
aV8dcc042f-d667-4235-8f94-f7950d105457
p1885
aV8dce2746-e5a0-4327-80fd-63f8ef1d6564
p1886
aV8dfa3d0c-e7eb-41df-8c48-3f412f5bfda2
p1887
aV8e113194-c4b2-4006-87fd-f75e334951ac
p1888
aV8e11513f-7692-4b6b-8440-cbcfdc269cc2
p1889
aV8e1915b8-1b6f-4427-8e30-0ab935b902e9
p1890
aV8e4ea939-9c84-4014-864d-b86a70b092cf
p1891
aV8e607c55-d10d-44aa-8f26-aea114b2c35f
p1892
aV8e6307c8-578a-4706-8003-e1e75e1b0162
p1893
aV8e69f679-c3fe-46a8-8edf-2c3931657394
p1894
aV8e6cafe1-4654-406c-8c06-1dc04451fa9f
p1895
aV8e736879-471e-4afc-8b1b-695e7956f211
p1896
aV8e7b918b-ecf8-40a2-8355-0ea82bb26378
p1897
aV8ecb2048-6db6-4cd4-802d-ab9f41de8b9c
p1898
aV8ee57c14-91ca-4f45-827c-472af9848800
p1899
aV8f037707-89ae-43df-8410-c1d159b44bb6
p1900
aV8f26d953-33b8-40d4-8eee-d65a8b1f2bae
p1901
aV8f28b316-6d60-4259-819a-052ebd75dd96
p1902
aV8f29a536-fe19-4cdc-89cc-1598f9525151
p1903
aV8f405464-ba25-4d69-85ff-00b72cf663ef
p1904
aV8f48da36-d392-403a-8ece-1c55a7479de1
p1905
aV8f55d89f-af88-4c90-8711-0a4f0136fe19
p1906
aV8f5730f1-0f6e-4450-84ec-0023e9ef6ca2
p1907
aV8f5b6ddd-4424-460c-8075-acedba51cc16
p1908
aV8f79dcdb-f0fa-408a-8f4f-495fc343f293
p1909
aV8f97b5e9-9f99-4fab-8514-6415fb74c8a6
p1910
aV8fa9c3f9-66ea-417c-8213-88b238a87573
p1911
aV8fab7d71-c977-4eab-8e45-9302f0ae4bd6
p1912
aV8fba84e7-5113-40ee-8a6d-a59e3bc16363
p1913
aV8fca1bbe-2682-4441-80a8-4ea80840a2a1
p1914
aV8fdc99df-86fe-40b0-8a1e-c8c61c7c55f1
p1915
aV8ff1bcea-73f5-4f3b-8c03-d93452f678c0
p1916
aV9022c8c4-66a9-482f-86db-d370ccac6304
p1917
aV902a17e1-a61d-4fb2-8c65-985d941957d5
p1918
aV904f99ee-1cd9-49d7-8751-8cc9a9be33e2
p1919
aV9054cc85-ae1b-46a9-8c1c-d67b36c6522d
p1920
aV9069bcef-8c7f-4f53-8f59-f985cd68e329
p1921
aV9073f361-35c3-4534-8c5c-1cb77186b298
p1922
aV907acb3b-3e71-4553-8c49-9978cee06498
p1923
aV908c4bda-2a58-48b8-893c-8ae2bf69e8e0
p1924
aV908db447-2c17-46e6-87cd-c950664b4548
p1925
aV909155b8-3062-4ead-825b-1b53dfacb256
p1926
aV90ab2297-8888-4e8f-8fb1-57ec40551ec9
p1927
aV90c24934-822e-4e27-882f-da96cdec77ab
p1928
aV90da5698-7a4e-4e68-8762-01f4b196726c
p1929
aV90ddbc3e-0a27-40a7-84de-9bd43325bf68
p1930
aV90f41a5e-5185-456e-84cf-bc5bce7490ee
p1931
aV91036da8-0411-4920-8999-a320a3e733d4
p1932
aV9106eec5-d084-45df-8e49-370238106c63
p1933
aV9155d879-29c7-4b85-8dda-54756ad439aa
p1934
aV916d043a-8f3f-4b27-865f-73215bb2429f
p1935
aV918fd1db-5a73-43de-874f-e4764c6445b7
p1936
aV91a27294-8528-4d5b-8b81-6b912e0354a1
p1937
aV91b893f4-ac3a-431d-8b46-4f0690daa1cb
p1938
aV91f96bdf-635a-4034-8799-1083b8fb17ce
p1939
aV92125681-2bd0-4898-8556-fe457f6fb45b
p1940
aV9221ac0b-a4a7-4ae6-842a-54635971921d
p1941
aV9242b710-400d-42c7-831b-2d96ce493720
p1942
aV92637091-ccdb-4047-8898-e95b2bfe39b5
p1943
aV9285b394-a929-4f5f-85c8-81518ca541e5
p1944
aV9293e85e-6070-43d5-834c-2abf220b19c3
p1945
aV92ae7d15-57e2-4e51-8e31-43b5cfb259e2
p1946
aV92b291c4-58d0-4b26-884f-d739a047cbe1
p1947
aV92b77926-6801-4aac-8f21-19efcc52a420
p1948
aV92c61f1e-0094-4f8a-8e13-41a85a7bb3a6
p1949
aV92ca6a32-f69c-4c17-8648-30b402857fb4
p1950
aV92d7a1a9-b553-432e-89ca-67114c4670e1
p1951
aV92e2096b-a725-4ef9-8544-31d77dbdccc1
p1952
aV92e9f33a-663d-40e3-8eae-47e673d60994
p1953
aV92f63c0c-b3af-4bce-8790-e09e6389cd20
p1954
aV92fed08d-a03d-4476-8e24-583b1cbcec51
p1955
aV932afe84-429b-4014-86e1-8f52ef938e2a
p1956
aV93742008-f518-453c-8c87-4d5ca14bfd63
p1957
aV93940352-f92d-42ff-8015-c17fe38df627
p1958
aV939c9f3f-ab04-4a45-8b7e-673c01351270
p1959
aV93af4143-7016-412c-8c3c-c849a12c7766
p1960
aV93b01d70-2bbf-4c8e-8625-88461ac9135a
p1961
aV93c7f13f-305b-4615-8a9b-7e30a9826e9d
p1962
aV93d49b71-a98d-494a-8833-f85d266ae3bd
p1963
aV93d4e51b-aee2-4b4c-8451-67fb6e94889b
p1964
aV93d89f25-2770-4030-814f-771fea2af2a4
p1965
aV93ee7868-62c3-4f9f-8a01-429ebc6f92f7
p1966
aV93f88532-193b-48a9-8ccb-f483557b28e5
p1967
aV94268cd9-b612-48a4-8b19-4df9854ae646
p1968
aV9429488e-e038-42ea-8b61-319b82a0f961
p1969
aV94323361-242c-43c2-82f1-25d6f9aa0f4e
p1970
aV9486fe60-aab1-4708-8fbb-6dca9b9d33c1
p1971
aV9493f1d4-84d7-4c89-8b72-c0336ea4df74
p1972
aV94a2914b-9190-4183-84be-80d3fe0f917e
p1973
aV94b3554f-0e02-40cc-8962-2e0b94965dff
p1974
aV94ce5a9c-f757-4af2-853b-3277f53259cf
p1975
aV94f2e17a-d0d2-41f4-8408-0befcc90cd2e
p1976
aV95218ed3-67d2-4b31-8425-194be606f371
p1977
aV9527e43d-69ad-4cea-8730-09f3a088972d
p1978
aV95574840-aa14-4875-89c7-ea42b6fae7f6
p1979
aV956ce6aa-f3a2-4995-8e7c-cc28b89f95e7
p1980
aV956edd9c-dab9-48f3-8f56-30c789aa73dd
p1981
aV95733c00-4e67-4618-873e-02dc04810f78
p1982
aV95752a56-c922-44e8-864f-b257ad4c6997
p1983
aV95a29ba2-b421-4e4f-8a09-5ea51b9268d2
p1984
aV95a3d56c-6164-4256-8519-4581be731d76
p1985
aV95b458d1-90b5-4482-89da-af98832cc0c3
p1986
aV95c6ae7f-ed88-4fab-8c03-5de71b98d552
p1987
aV95e57404-9f19-4b80-888a-7e2e379a52a0
p1988
aV960eba4e-c1a4-44a1-8c55-a0d5c1eca987
p1989
aV962ae537-97a2-495a-8e4e-1512ca1eff8a
p1990
aV964c2e64-94a1-4eac-8023-b449f796d264
p1991
aV9665901d-d340-49a5-8deb-cbc75dfb24e0
p1992
aV96710208-db9c-42f7-8497-b397fb02a25d
p1993
aV967567f1-b6eb-4769-80c5-f4f8b5be4e2d
p1994
aV969e42e1-edf6-4e9d-8ce6-a08c0c51d0b3
p1995
aV96a65fca-2432-4ca5-8a85-d40089317b7a
p1996
aV96aeb54f-8c85-46a1-8db8-5bf604848cd4
p1997
aV96bcf3a7-5492-4e5b-82a2-093aba32f065
p1998
aV96cd5f7f-c66f-4a04-86cd-5c3952f55ea7
p1999
aV96d4771f-fad3-4ee9-8006-68dbb8a512f6
p2000
aV96eae998-4f83-4cb9-8f64-5913df8964c9
p2001
aV96efb54b-42c2-4a0b-8cbc-da130551e83a
p2002
aV96f91a11-ea57-418a-8470-f651c314a461
p2003
aV974c00b6-f66d-483f-87dc-29778139a7df
p2004
aV975c87b3-8b2d-43a9-85b9-ec006dbd4b00
p2005
aV9763597b-fd7f-495c-876a-3709c2e4136e
p2006
aV9768c7c5-700d-4e6c-8d7e-9e33fa5b427f
p2007
aV97882800-81df-4945-8efa-f671436378ae
p2008
aV9788d707-eb47-4c2f-8df3-a003fea9ea5a
p2009
aV9792e5d3-42a9-4b92-8fda-4b08ef69c154
p2010
aV97932f60-5666-41f4-84a6-15ed1f745fc2
p2011
aV97cb02d5-0f95-424f-82ab-1ea8307bf0d1
p2012
aV97d6b869-958e-423e-8f8b-4780633cc0af
p2013
aV97dcd87b-bfe7-438c-80e6-6dea007aa98b
p2014
aV97f18072-4f68-4cd7-87a3-2af2d0741f33
p2015
aV9819f59b-6b9f-479c-8b8d-f36c4ead8e19
p2016
aV9831be3f-93f6-486a-8b69-37f79d0d211a
p2017
aV984633ff-3414-43b3-8be8-fd99f8c31ff3
p2018
aV98598cf4-c2a0-4049-81b1-c0dc787cbb0a
p2019
aV98680b30-27dd-471e-8a2f-25a10aca7c43
p2020
aV98a22996-148f-4680-83c9-a3791c5bcf61
p2021
aV98abb391-401c-44f8-8a7f-3d8183397342
p2022
aV98b203eb-3a83-48af-8993-97f9058c88dd
p2023
aV98baf629-f3f7-4c7d-8763-a591c1181c10
p2024
aV98e727bb-3da7-45c4-812d-5fa4a65506a2
p2025
aV98f15feb-3b69-4d68-8344-3ac22f2a73c8
p2026
aV990ef8ca-07c8-4490-868a-47a0d1c07849
p2027
aV9913b017-a5fb-4115-8b8b-b7127cb90448
p2028
aV991b896f-bff8-4908-8fe3-4615f6e2e82b
p2029
aV991ea1b1-54ec-4a2a-8de0-4436e6449d5a
p2030
aV994700f0-f882-4c2f-8840-869728db9cf4
p2031
aV994ebb52-498a-4d88-8893-3c493feb825b
p2032
aV994f8f97-3a97-48d4-8fee-ce4a6f266a7f
p2033
aV995ca718-ddda-4922-8b01-20f1400acbf7
p2034
aV9973c0af-2498-4fff-8548-376b09a0e59f
p2035
aV99770f2d-7fdf-4c9b-8bed-44388b16088d
p2036
aV999084b1-81b9-4ac4-8e4d-51209259678b
p2037
aV99a98655-1677-4153-82d6-8d200a49c0d9
p2038
aV99a99a28-9f7c-42a8-8344-7d7a956609aa
p2039
aV99d2d964-0cb7-458c-8b5a-204ce74d8a26
p2040
aV9a374da9-5d27-489c-8608-72215b19b4ba
p2041
aV9a7e9d78-94f2-4cef-81d5-1eb083929932
p2042
aV9aae7ab1-5c3b-45a1-8b12-770e4c73e8f2
p2043
aV9ab90dfd-e217-4c7d-8b01-fab28233a5a3
p2044
aV9ac9d7fd-084f-4971-82b4-859b0644add9
p2045
aV9ae45c7c-6faf-428d-8dc2-bce7d4e082ed
p2046
aV9aea098a-1ade-48d4-85cf-99b34976e270
p2047
aV9aebd492-8f6d-4e2b-86fa-c43fa28667f1
p2048
aV9b126157-8615-4bf7-8aee-a1e333d9d93a
p2049
aV9b16dd8a-b530-43a6-8f3c-978070789860
p2050
aV9b4aa995-0b0b-4354-8e5f-8638d7dfcba6
p2051
aV9b62ec40-2aa6-4553-8a4b-ee5eafa1532c
p2052
aV9b770f5b-bb0a-404d-844c-2355365724e4
p2053
aV9b7730a6-9078-4cd6-8784-a740ecd687ce
p2054
aV9b7914b5-6118-4e73-8590-e0044ec36612
p2055
aV9b7ed424-1f85-4ec7-817f-09d7b9fbb03f
p2056
aV9b8160be-47e1-421a-8f09-850d37d555fd
p2057
aV9b84a17e-bd5b-42c8-8f3a-714c70fb0d29
p2058
aV9b9d19b0-4b4f-46be-8a53-d354f711e6d4
p2059
aV9ba94750-cc81-4333-823b-6f1f09f73c55
p2060
aV9bbe1a24-cb37-4222-87c1-5733ca048ce6
p2061
aV9bd538e6-7061-4833-814e-c46de2d2ff82
p2062
aV9be6e336-1b54-468f-83b2-bd76b0eab7ec
p2063
aV9befe796-f5b0-4670-8790-3f650c70f110
p2064
aV9bfca28e-5711-44ae-88ee-560e1e5546d5
p2065
aV9c002614-e501-4e47-824b-fa0e3a458d12
p2066
aV9c05d123-2a71-4422-8ad1-2fd11eda74b2
p2067
aV9c0e231b-9fb5-4c60-8c97-7b93c7c684cd
p2068
aV9c15b857-5743-4c62-8068-c38674d187ab
p2069
aV9c1d0602-3d13-43e5-89a3-d38335e780f0
p2070
aV9c2b3639-9798-4d74-80a1-dadc3aa6b9c0
p2071
aV9c40c115-7a50-4f32-89c7-6768b75d7fb4
p2072
aV9c6f1558-e926-44f3-84be-d3a344344e41
p2073
aV9cbb9d33-df15-4280-8dca-d9bac6e25a67
p2074
aV9ccfd26a-202c-44cd-8800-db3c77f853eb
p2075
aV9ce82241-9584-4437-8396-f870c6667b2d
p2076
aV9cf89857-5ff9-4748-8f8e-d71ad34e65ab
p2077
aV9cfae94c-de31-4e5f-8353-ceb8fe33d780
p2078
aV9d179f0e-0c68-4194-80f3-ae23f1be394a
p2079
aV9d1d809d-7621-4909-8a83-c79d11a3fbdd
p2080
aV9d1e357e-adf3-49c7-803a-dfb02c8bc8ec
p2081
aV9d22df1a-8728-4df1-82b9-bd003912d284
p2082
aV9d38820b-41b1-442e-822f-f4c6d94f9ad6
p2083
aV9d43eb51-e334-46af-89ea-cf89128e8590
p2084
aV9d5ea00b-e501-48e1-8176-382cd2465a89
p2085
aV9d8892dc-ea93-43fb-8ff5-0814b8bfb9aa
p2086
aV9da54d20-788f-4cce-84ba-5cdaae45b7bd
p2087
aV9dc7f888-595e-4e3c-808a-cdf477ae5c1f
p2088
aV9dcb4a86-af14-4b5a-8d8b-dfa8cd8bd7e7
p2089
aV9dcbb521-5561-4415-886c-91025bde7ef1
p2090
aV9ddba4cf-76df-457d-8c13-e9f4af9ab076
p2091
aV9ddeeb37-e489-4f6d-8d4a-3acc4b5e5d0d
p2092
aV9dfa318c-93c5-43f3-8e03-bc9123046033
p2093
aV9e033d89-d5bf-4beb-8fd1-6d3be4684341
p2094
aV9e1dc089-7e41-4900-8ce5-59a01bef5945
p2095
aV9e79ac10-0561-4ea8-8d76-66b2312c8a77
p2096
aV9e8aab9e-394e-4b37-8673-975776200c91
p2097
aV9e9235a5-9c1e-40b6-8464-e272ed53bfba
p2098
aV9e951e3d-1996-4a86-84c2-2becc980f474
p2099
aV9eb2dfa9-3453-4a78-846f-28dbcb478d09
p2100
aV9ec22f4c-4c20-4d9d-8b74-12bf71d6068e
p2101
aV9ec60ddc-e8fe-4aff-84a9-851a19561208
p2102
aV9ed0c613-ed81-4901-8958-37d97776f9cb
p2103
aV9ed3bc52-23f0-4fd6-8dc7-f45e7211d74b
p2104
aV9edd45a8-f8b6-4ce9-8f98-cd9caf66fcb8
p2105
aV9eeb5a76-6b1f-4f6c-88dd-4a016bb247d7
p2106
aV9eedd582-ac6a-4ee3-89f8-7c3a22520eda
p2107
aV9f0ff5e6-aff7-48ce-8968-1f5673467395
p2108
aV9f5b48d8-73dd-41a4-8c83-2ef43ad0cf0d
p2109
aV9f622859-5699-4cf3-8525-38232256d023
p2110
aV9f6a8412-abc2-41a0-84ce-6d47d304c02c
p2111
aV9fbe48db-4957-4d06-8d43-e04cf92ff7ef
p2112
aV9fd9a26f-dce9-413e-8144-97b0543e0a2a
p2113
aV9fdda5fa-edcd-4d33-8f55-705ccf7ed4a7
p2114
aV9fe42289-e192-4045-846e-14b6c604dbd0
p2115
aV9feae294-46a7-4087-8a7a-94713eb30ef2
p2116
aVa000bdf5-aa03-4993-8444-acc0e5ada5eb
p2117
aVa01314bf-81ef-4995-8ddc-930c08f26622
p2118
aVa0173d7f-117b-47aa-8672-8474f1aafc60
p2119
aVa01d05d4-1d77-41e0-8910-a1830042c4fa
p2120
aVa041daf6-ced4-4e17-880d-26d10a3ed0f3
p2121
aVa04cbc4c-1f9b-4ce7-8407-22b64764c5f0
p2122
aVa0710e23-6244-4dcb-8b8b-40c7ba0a8459
p2123
aVa0931e11-7b0b-48a6-8dbf-37ecb83b5678
p2124
aVa0b71b16-a580-45ed-85f1-3a26bb61f345
p2125
aVa0cd991a-78f1-44ae-8497-9859fd2c88bf
p2126
aVa0e1dbc6-e06c-4dbe-8163-2adf7c18f02d
p2127
aVa0e8a65a-a4d2-4fd0-8e04-17850096a921
p2128
aVa1041873-188b-4ec5-81a9-935f12cec075
p2129
aVa11fc5b3-5796-4821-8678-82003d90a847
p2130
aVa125162b-7568-4c9e-887d-a9a39b9c776a
p2131
aVa1917335-6c75-4bd0-8614-aed144dab426
p2132
aVa192175d-44c3-4a30-87f8-90fee452d515
p2133
aVa1aa55ac-1622-4fae-845f-ef43cff2d92b
p2134
aVa1bf98ef-cb84-4799-8b28-498d4c7f571d
p2135
aVa1dc2dc5-7b1d-48e8-80f4-a7a5fc68110a
p2136
aVa216a3e9-40d9-4b34-8e2e-3cbc4ab821ca
p2137
aVa2177db7-e9aa-42e5-8e01-8d4394320b85
p2138
aVa2185d45-47ee-459f-8a92-4e5665a3923d
p2139
aVa2215239-eecc-485b-8bd0-4e89c1a3879b
p2140
aVa236a8ba-e062-49ad-8adb-21eb852cf593
p2141
aVa25944b7-4390-4f30-8667-ab65aad079a1
p2142
aVa25d3b92-7562-45f0-8810-156887ab439b
p2143
aVa26d63c9-a14c-4abb-86c0-5e864a6f4002
p2144
aVa293691a-6e82-4868-88e4-5df4bc8a093e
p2145
aVa293f46d-136d-4803-885a-ec9aa8798269
p2146
aVa2ab9a6e-8c8e-4c70-81f6-caae78d21bd2
p2147
aVa2b2259a-d3fa-402e-880e-362f9a5f0b4c
p2148
aVa2c25280-1514-4042-8858-6813d931e923
p2149
aVa2cdedd2-eef2-448f-855e-399a60920fd7
p2150
aVa2e5f64a-8c0a-4d85-8540-7133294d796c
p2151
aVa2f7240c-49a7-4ec9-8b40-a93bdeaecb4f
p2152
aVa2f9f6a8-5414-4327-8140-f0abb970fd1f
p2153
aVa2fc8269-ea9c-4ff3-8e83-e3d96c8c935e
p2154
aVa310a567-f5db-40fd-8711-8652f6cdd991
p2155
aVa310f39d-7ebe-4963-83b3-00697c715fdd
p2156
aVa31a6e50-ae2f-481c-8d6e-597be85b5608
p2157
aVa3244166-57ac-49af-849a-9114f9a2efa6
p2158
aVa335803b-91dc-4cda-8cac-79064db47150
p2159
aVa3391b22-3db3-496f-87e3-8066730d5e5c
p2160
aVa33fbb11-c546-411a-81c3-e0bd0434e151
p2161
aVa3692a5c-dcbc-4280-8600-df4f68014ec6
p2162
aVa39e2821-d0cd-43c5-8afb-567aaf94d9c0
p2163
aVa3a7032a-4fe0-46b8-8735-ff560af8e324
p2164
aVa3b9bb87-6a89-4fca-84d2-609ae25421b4
p2165
aVa3d2b457-9be0-4cf2-8a29-bd6c10cd26a3
p2166
aVa3f50c3a-265c-42cd-894a-81ff2caa1795
p2167
aVa3f723e4-7c07-4b16-8af9-3bd42293bab7
p2168
aVa3f74a42-554e-4ea5-8fcc-9605df870125
p2169
aVa42642c9-d77b-48dc-88f4-d8023d969569
p2170
aVa426b2cb-2efb-47be-84b7-e43a5469e024
p2171
aVa430c41f-112e-4f99-875f-5be1046e3d65
p2172
aVa447de3b-dc57-4388-839e-462575e91e7d
p2173
aVa44a805d-2de2-4116-8709-31f2130c7530
p2174
aVa4703214-51f2-424c-8564-1e8ee377de30
p2175
aVa4792d62-8086-42d8-8a73-91e24f618802
p2176
aVa49da965-2734-43a0-88ee-533935d8ac21
p2177
aVa4e09e7e-fc27-47f9-84b5-b9d3259438bf
p2178
aVa4eb8a7e-f202-404e-8a7a-fd0f9094ee24
p2179
aVa504b3d5-06b9-4b73-8524-3c333ee72d09
p2180
aVa5088fe1-fa6f-4763-8375-2dc312cc461f
p2181
aVa5102bde-77f2-4847-8136-3e648b780343
p2182
aVa5120356-8311-4487-82c7-2d33e61728e2
p2183
aVa518695d-f2c2-4e53-89b1-1928fbc2cb8e
p2184
aVa51fa282-13ea-487f-801c-b8fceb300312
p2185
aVa533501b-7fcd-420e-8be2-5694f0e788ad
p2186
aVa5366e29-5bf9-4d59-8e1d-547020c707c5
p2187
aVa5400c40-7a2e-480d-859c-9407069f805c
p2188
aVa540d289-2279-4ad6-824a-ad93a0f4e104
p2189
aVa545062f-fd3a-46ac-8eb5-a82a7826f0bb
p2190
aVa5492c63-8bd8-4a7c-86ab-ed53ef352556
p2191
aVa55012f6-f45a-410c-830c-2f04bfad4a84
p2192
aVa560e098-dd40-4609-8bd3-7976490bc424
p2193
aVa571c8c8-4e74-4b7e-8f71-197d4c3e52df
p2194
aVa572ef7b-703e-44af-830d-e443fdcc4263
p2195
aVa5937889-9b26-4bdf-8b20-fe692499c3a3
p2196
aVa5ae5a3a-08f9-4ab3-89de-15b04c637f6c
p2197
aVa5bd576f-8f5c-4650-8836-383bd4f3ac3c
p2198
aVa5dee751-9af3-4a84-8e78-6fc00e705c62
p2199
aVa5eb1ee6-6872-47e4-8bf8-48a48d51b540
p2200
aVa5ee23d3-d29b-4ff6-8bee-a5bed105c2c8
p2201
aVa602d950-2bb3-4632-82ed-9dc40fa270b5
p2202
aVa60793c3-8716-419e-8305-b41668319482
p2203
aVa61c09b3-0d48-490f-8b98-250bd1f120a8
p2204
aVa62d2ad5-5229-496a-89bc-9fce66801502
p2205
aVa687c369-878c-4c79-84c2-6776140a6b13
p2206
aVa68f8c79-8e63-4891-8e42-a53c915f8122
p2207
aVa69b468f-cb91-4873-8171-7b19894beeed
p2208
aVa6a396db-bf5d-4285-8fb5-0ab360eb456b
p2209
aVa6b0e4c0-7226-4faf-88e7-0e0a1800fffa
p2210
aVa6bd36e8-89fa-4fca-82bc-f35ed5d88728
p2211
aVa6eb3b6e-3345-4193-8929-08d4bdc0e508
p2212
aVa6f30658-aa22-4a73-89e0-a7faf19e4ee4
p2213
aVa6f5b499-8be9-486d-857a-f4c8d37a0367
p2214
aVa712abe9-ea07-4bad-8cf9-b5a9c1b527cc
p2215
aVa7235cfc-3a03-421f-8041-df03bade1fdc
p2216
aVa724040c-c9e0-4417-805d-bd3915aa5854
p2217
aVa7275394-160f-4bdf-86fe-3b302fb5a603
p2218
aVa72bb588-0274-4789-81b8-fc60973c52c1
p2219
aVa72db756-e5e3-4e2d-86de-7a422c7cb12a
p2220
aVa741315f-3509-4fbd-802f-f6a9dea1d271
p2221
aVa742a66f-203b-4d40-8fec-37ea6b08ccae
p2222
aVa773aa1e-71bf-4743-84ae-20a4f3cbe1da
p2223
aVa7822088-d39a-42a2-80c8-2273a4b8c0d7
p2224
aVa785050f-27a2-4d4c-8d42-9702f9da4a4a
p2225
aVa79ad9be-d469-4003-8f2d-1e50fc755b1d
p2226
aVa7a373e7-2747-441f-869a-efbb58f461c5
p2227
aVa7ac4bc4-4790-4fc1-8082-c1b02aa61a73
p2228
aVa7b24b2b-6ab0-46e9-87dd-d71f3ad0a009
p2229
aVa7c36633-09ef-4fd9-8a4d-5baee40f2246
p2230
aVa7ebda73-ede9-4398-807c-554a7c80fb9a
p2231
aVa7f7cf32-330a-40b8-842a-a72c25b95c07
p2232
aVa8289969-209e-455d-8076-f1c2a968ab0c
p2233
aVa84e6a91-8f31-495b-8d56-98baad0ab697
p2234
aVa86494c5-9a7f-459b-8167-b8505ce3ca41
p2235
aVa87ce754-48b4-4a92-8697-627a1bc6f886
p2236
aVa8833b09-efe2-4ffc-8d79-aff91e7de713
p2237
aVa88910bc-2df3-44ba-81e9-6f241f0ac2c6
p2238
aVa88cbd34-7bc9-46bc-8e29-ba6c8c59fa54
p2239
aVa8971dfc-10cf-4c83-827a-835900e53ded
p2240
aVa8c302e0-49e3-4567-89f6-2f2a9443165a
p2241
aVa8cde2bf-544b-4609-8a01-bdeb2cec8808
p2242
aVa8d0feaf-614b-4a35-8794-c063d2a383ba
p2243
aVa8fcffa1-3de9-45c9-8f5a-09eff342e4c3
p2244
aVa906908f-9f77-497f-865e-782d5839574d
p2245
aVa90afa9e-1def-4b4f-897a-d1352a6bd478
p2246
aVa9630ed2-099f-432c-892b-74d5c35962fb
p2247
aVa96b3d46-1a23-41a4-8190-4f5fa1773fa1
p2248
aVa98aa2a9-4eda-4068-8faa-70445d85d4e7
p2249
aVa9ad7ffc-0d65-4bc2-86a2-4f931155abb9
p2250
aVa9d85631-7ead-422a-8c2e-f9ece24923fd
p2251
aVa9f85bd4-7180-4b45-857c-13b3ee340f07
p2252
aVaa15e74e-1684-43b1-814e-6887bee515cf
p2253
aVaa1d1c54-3e5b-4726-85a2-c32ecae960c9
p2254
aVaa2159b7-a076-42b7-80a1-ec30c03b624b
p2255
aVaa2400dc-681a-4191-81e3-e4a326aacd51
p2256
aVaa26844e-f9b6-408d-86a6-c00f933999b5
p2257
aVaa31b2ee-9b21-44fc-84ea-a086fe63be42
p2258
aVaa3d2a86-622e-463b-8816-f0d284a4589e
p2259
aVaa8f5b29-cc50-432b-8e35-e59d411ba684
p2260
aVaab7baea-aed6-4551-848c-681deb9e4200
p2261
aVaad2029a-8ba6-4bd0-8d83-3bb8a9b9c031
p2262
aVab02e62a-bb95-4b34-85bc-cd78c9bbca27
p2263
aVab1e821e-2f74-479e-8250-5eee4c148500
p2264
aVab281949-581f-452c-86f9-ce3421fed46e
p2265
aVab4299ae-d4d2-4226-8f7e-f5f548b17e1d
p2266
aVab4be295-6109-4fbc-8489-cdf319a190af
p2267
aVab4c01b7-b8b6-4b07-86c5-a40344c5b55e
p2268
aVab54187e-022b-471a-8c94-69524425b963
p2269
aVab5a639c-80b6-4a43-8ab4-e48ec4179b13
p2270
aVab65cc67-9d16-4f12-8e26-d864f31e0f52
p2271
aVab80b171-6b2a-471b-88f2-b54f0b807261
p2272
aVab891106-fd80-4325-855f-db52d78b77c9
p2273
aVabba0f67-7ed6-4cbe-8508-6e9fa788ec67
p2274
aVabfd4eed-285a-4b0c-8da9-119c46379f4d
p2275
aVac125ce8-9461-47ac-8a45-5fc0b20641fc
p2276
aVac272305-8cd0-47ff-811a-f40884af7505
p2277
aVac2750d6-cce7-4f22-8f01-f289c57adf11
p2278
aVac2c82b2-d6f1-499b-8b5a-99feae3b2003
p2279
aVac392880-786a-464c-830b-797e50553c32
p2280
aVac392af4-b149-464a-8677-c2d7695b4434
p2281
aVac5fc639-2279-40ba-8b71-48d2786f20c9
p2282
aVac64e146-4078-4907-8ce9-b50cc5f1a38b
p2283
aVac93e7d1-877f-499e-8458-de809c6a6bb3
p2284
aVac9adff7-0201-492c-8fa3-5bb8d0bbcea2
p2285
aVaca221cd-76fa-4ffb-83a1-7b9accd19a40
p2286
aVacab7187-6fab-4306-859b-d4f0fefd2590
p2287
aVacc572f2-e7b5-41e2-881e-4014febc766d
p2288
aVace16118-96fe-4ca9-8129-f542208b2a92
p2289
aVacf14564-df48-4c6c-8ea9-acb1262094e8
p2290
aVad08d6ec-d726-4739-8d72-165a358d1358
p2291
aVad15b58e-424a-465c-8e2b-82be87f0b3d7
p2292
aVad4580d3-8a23-42b1-8e50-306db77d070b
p2293
aVad469624-bfd5-4cfd-840f-539dd5b067e0
p2294
aVad51817e-dcd4-4ba0-8c96-8c3426086d60
p2295
aVad5d9955-cbc1-4041-8cc5-576e6f85065e
p2296
aVad87ea98-e3c8-40c3-81d0-7812caf24250
p2297
aVad914d98-5863-4463-8993-473d0920e379
p2298
aVad988a69-0939-4145-8659-3753a85025dc
p2299
aVada186c3-b617-4eb7-808f-6e4d7ec6efe8
p2300
aVadab6185-3a4c-45da-8348-bda1dfc55b76
p2301
aVadac08ce-c74e-4889-8441-072958578566
p2302
aVadb957f0-bf63-4f48-8358-e78a80843876
p2303
aVadca2f7e-c695-49a5-81e8-f10501ea5ba0
p2304
aVadca6a42-609b-4c18-85fc-7d1e8c215edc
p2305
aVade6ce84-3d2d-4caf-89d2-592b6f0ebb59
p2306
aVadfb00db-db5b-4036-8335-78aadc34ac53
p2307
aVae040cc5-e222-4c12-8f10-e2f6e8105687
p2308
aVae4883f7-e307-4b25-835d-be2e6f2ccd1b
p2309
aVae5f3a28-7808-437f-8720-cd3e5ff23951
p2310
aVae693f71-62bf-42d1-8e55-7bc45131bc3b
p2311
aVae8dc414-fa41-4d0d-810f-e71e5e856306
p2312
aVaed2ea5f-86b2-49aa-8385-db1c24c728d7
p2313
aVaef55203-643a-4a04-8c86-ee46849ee084
p2314
aVaf08bd09-78e4-4866-83e2-a0e2caa1c31e
p2315
aVaf20c18b-7dc3-42fd-8b5f-05c8f2c553b0
p2316
aVaf28ce39-c504-43b7-8b0a-c71abe7ff510
p2317
aVaf426234-621b-4757-804a-0b1b15e2da78
p2318
aVaf6b8fca-d329-4bcc-8769-4b8dbcc6021e
p2319
aVaf6bc4fa-ee00-4dec-893b-bc8324961820
p2320
aVaf6cbaba-82c7-4ced-8676-a73b2c22c635
p2321
aVaf8fee24-6188-439e-85a8-1a5db5296cdd
p2322
aVaf96357c-6993-45f8-8cc7-f0cce97aa6ed
p2323
aVaf9a43df-e40e-46f7-8f0e-4bf9b4a3ced4
p2324
aVaf9d2d5c-0e02-4e96-880b-408a534ff8bf
p2325
aVafe07e69-596a-4626-8c8e-de5b6663ba82
p2326
aVaff2dc91-a666-4a13-8c58-e4f2f340a4a1
p2327
aVb022cc51-1660-4a2e-8b3c-f42f4c222ba6
p2328
aVb03b6d2f-fec5-4937-8f63-22434d696107
p2329
aVb04b67f7-3a64-4e2a-88e2-8c2fc79929ef
p2330
aVb053f160-a58c-4aaa-8eb6-5259ba82473e
p2331
aVb05873d0-daa2-40bf-8983-806fdec1d221
p2332
aVb05d73a0-7b3c-44df-88f1-e104e6f1227b
p2333
aVb05f7fe1-d0a2-4389-8abe-fa86ef7ebaae
p2334
aVb064fc0a-b638-4ecf-8b5f-51a063aa1d5b
p2335
aVb0719715-c687-4eb2-8d72-d8d161dfec57
p2336
aVb072d32e-a2c7-452f-8f5d-98b6bf73337b
p2337
aVb08aa15d-5095-420b-8995-4998635f11a4
p2338
aVb08b5296-9e54-49bb-8bbd-28adde2a6655
p2339
aVb09e243d-fe5a-46cb-8cd5-59fbcf8e1169
p2340
aVb0adc731-f2d3-4f28-827f-59438bfece53
p2341
aVb0b7480b-f5a0-438c-8e1f-22cae40de2f5
p2342
aVb0f025b3-9ba3-4ceb-83a0-6a384eedd88e
p2343
aVb0f46f92-3c55-4d08-8440-086443c6d1a8
p2344
aVb100db4d-5836-4ef7-8b3b-84280865a44b
p2345
aVb10118c3-dd2a-4e8d-8b9c-f0843cc8f45c
p2346
aVb1058881-96e4-412b-8e53-dff92e4be651
p2347
aVb11d3464-c88b-46d6-8502-569610204197
p2348
aVb1389d89-ebfc-4745-86fe-3605c46dc885
p2349
aVb19a0611-ec01-4452-8879-7bc14c573235
p2350
aVb1a6b81d-4e67-4ad0-8b63-5dfeba0f0da2
p2351
aVb1b5508a-8706-48b0-84d6-499a880f14fa
p2352
aVb1c532a3-260e-4362-8f88-df0db35bd06e
p2353
aVb1c5c6a5-5857-42c9-8bb7-2762e0e55215
p2354
aVb1c62e94-cae1-4eb8-8b77-b67feafab08e
p2355
aVb1cdc2ec-dad7-406f-8915-666e93c93777
p2356
aVb1e71653-8598-4d98-8fae-1952f0c26d92
p2357
aVb1efbe24-9436-4962-8d53-2c476b75febb
p2358
aVb206b323-9567-47ea-87c1-ddedf5dcffb4
p2359
aVb20eb0c2-f7d7-49da-8678-d7e463636d65
p2360
aVb210327c-62d5-4849-8369-d41f7887254b
p2361
aVb212124f-9710-4b79-8aa5-04e74c469679
p2362
aVb23c0554-d55e-4f6b-8ce0-c82b6228c27a
p2363
aVb259fa25-70ad-4643-86a6-fc91b4ed9dc8
p2364
aVb2620239-9526-43bd-8a65-c0927bb11ab3
p2365
aVb262b4f9-a25d-434e-8def-062d4d4918ec
p2366
aVb2b1398c-e99b-44c7-81ce-c3ac91671ede
p2367
aVb2b70d5d-8b73-45d3-83a0-ccace50e0fcb
p2368
aVb2c1a69c-8699-40d2-8f86-889b4d71ba5b
p2369
aVb2dfb0b9-cb95-431c-8760-2ecabee401fb
p2370
aVb2fbfacb-7065-49e4-890a-32e949d0353c
p2371
aVb302bb62-6218-49c4-82a4-7684051adaee
p2372
aVb33430d9-8a85-47c2-8c42-48cc94184ac2
p2373
aVb33a1fcd-62a1-43ae-8b59-87f64eb731bc
p2374
aVb33b7595-63a8-4752-8b65-a0e429feae12
p2375
aVb347e1c5-0326-4111-8814-8d535cc14d45
p2376
aVb34ba7ec-18e7-433f-886c-4a7eb0a2728c
p2377
aVb3536671-1f44-439f-85e0-111b2b43ae60
p2378
aVb36260cc-e2ee-496b-812e-65754fdab2ac
p2379
aVb363253d-f2b3-4494-8a28-395a0f5c5448
p2380
aVb36f6d60-c6cd-49de-8712-1e9d391346b3
p2381
aVb37033e7-fe0a-4b13-8101-a3ca00a8e61e
p2382
aVb374f60b-9580-44dc-83f6-c0a850c15f30
p2383
aVb38e2de0-de69-4f01-8d83-cf45147c832b
p2384
aVb39954de-7b60-421f-8f03-9ed5b1cfa709
p2385
aVb3ae05ad-30c7-484f-85b8-a6851422cad5
p2386
aVb3d9fa31-6279-4452-8957-0aa73038856e
p2387
aVb3db2db2-d0a3-481f-82eb-2e57cff62f8c
p2388
aVb3e2109c-4932-4003-85cb-9b025f51e19c
p2389
aVb3f7ead0-dd0d-4ad7-8557-46df63bbd227
p2390
aVb40ee1d3-2953-4e76-8665-efa73d7154c3
p2391
aVb41e6c95-2594-43b1-8727-b9b331eee772
p2392
aVb425405d-5f5c-4b3d-8cdd-7ab2d84d8365
p2393
aVb448cbe1-e7f8-420e-8046-dd43ad730cca
p2394
aVb44a0305-5dc0-4f3e-82a7-f6077294fe75
p2395
aVb45ef1e3-12eb-44c0-85fd-f91b3fb599f0
p2396
aVb466543c-dc12-4339-8328-abf5f5dd8c26
p2397
aVb46b781d-0386-4e1d-82cc-8f6cae43f95d
p2398
aVb472515c-171a-4bd4-8a3c-98687c458d61
p2399
aVb49e9cb8-9b3a-48e1-8663-6f5b1c26e9ce
p2400
aVb4a64d94-14b6-40b4-85d2-0c7ed374a2bc
p2401
aVb4b77a6b-dbe0-441d-87c9-d9a682cb7133
p2402
aVb4b8964d-60b2-4fa7-882d-b032841a97f3
p2403
aVb4c13c26-4d27-415f-8b05-16e9d56d2a86
p2404
aVb4c87982-74ba-4daf-8dfe-190910e26c3e
p2405
aVb4d63277-51f4-4d24-867f-111220f2d123
p2406
aVb4d8f142-4912-4f9c-8183-14a9a329eafc
p2407
aVb4dbc600-3c4d-4ca4-8703-886e88a852e7
p2408
aVb4fcb374-d555-4ace-8051-28e338a01431
p2409
aVb4fd7437-80cb-4b9d-8d13-d3072007078b
p2410
aVb50267ca-738a-448b-840e-309f7897dd00
p2411
aVb5032ba4-e9fe-4072-8e5d-212610fdd275
p2412
aVb50a884c-d511-4725-8fc2-584a12e14152
p2413
aVb50b38c1-384b-4ef6-8c0e-3955585d6d11
p2414
aVb51284e0-1f32-4f9a-8664-4ccda902529b
p2415
aVb51e2a50-7d30-4642-8b0c-c0331f5ddaed
p2416
aVb5248b22-7bdc-4a66-877b-28076576b5b3
p2417
aVb52664cf-bfd9-49ad-849a-cb88c92553b9
p2418
aVb549b9a0-407e-42c0-8215-5dfd14f93214
p2419
aVb54c0d73-d83d-45fa-8d78-3dfabf792b1a
p2420
aVb5617126-e3a4-4f83-847a-ffa3cbb1371f
p2421
aVb56f37a5-56c5-4f43-8b9a-643979672406
p2422
aVb5744007-2699-4b08-8234-cc0b034355ec
p2423
aVb579a31e-a133-4f20-855b-9d44553d6c9c
p2424
aVb57b4676-5922-4146-875b-6a1c37be94d9
p2425
aVb5aa267c-f5fb-4c05-8f9e-90fb7674d04c
p2426
aVb5d17614-48a4-4889-84e7-090ddeb5e181
p2427
aVb5de2fb3-4a98-48b1-8808-6814ab9ec844
p2428
aVb5e1acbb-3f8f-40bc-8147-86c4436ccc90
p2429
aVb5e3795d-a1d0-4782-8e6c-c24db2514a07
p2430
aVb5e7b47d-2f67-45bf-885d-67f4cf0e5df1
p2431
aVb5f80ad9-740b-47cc-83f6-9dd1c16e8728
p2432
aVb604f470-ab99-4b29-8104-a678759d3278
p2433
aVb6160a24-6134-4c35-8f1e-910c14784f4b
p2434
aVb618e06d-7307-4c69-8fa6-2d5dfa46a675
p2435
aVb64245f6-808d-48a6-833b-af1910556b75
p2436
aVb64b3435-bbba-4ea0-8d4b-733a94ac7e5c
p2437
aVb64f6f58-0107-40f8-80e7-8974b161b125
p2438
aVb65cc561-10ea-4417-898c-adffae5d1839
p2439
aVb66b6f4b-86eb-4086-8c16-187fd88c86d3
p2440
aVb66fab5d-f7bf-4d4e-8303-8538d8e748a3
p2441
aVb67fca1b-1310-4b3b-8c05-eb1ba71cc586
p2442
aVb687ed1d-eb00-4597-839e-5a03efd1fb92
p2443
aVb69b142b-eb18-4bc8-836b-224dea6075e7
p2444
aVb6a92a22-6a20-40c8-8ca9-76f62dedc5c4
p2445
aVb6aaf106-0c04-4711-81f3-2fa514b945f4
p2446
aVb6b9c9e7-bd58-4b2f-8a7a-97bf370a4880
p2447
aVb6d838d4-86a2-4acd-897c-f247bdf49a66
p2448
aVb70b8d98-926c-429f-8638-095685754fa0
p2449
aVb710bf4a-d161-4e19-8c28-a4d072995dab
p2450
aVb71e79d7-434a-4f2e-823a-2ebac1e23a69
p2451
aVb71fc745-4a03-4e75-8479-215c9bd0988a
p2452
aVb7335f67-a917-460a-8d02-f6985bc9fc15
p2453
aVb736132c-e345-4435-81a1-5aedba562cfc
p2454
aVb742422a-37b2-49c1-86d6-56c1b915df55
p2455
aVb76963a9-f035-4097-8432-2ba8ba0aed56
p2456
aVb773c05d-4eb0-4dd4-8103-ce3a6d96e245
p2457
aVb775e414-40e9-4657-8b4c-1b0e051ae1db
p2458
aVb78afb31-0534-4cd1-8d4a-33c0cf19de55
p2459
aVb78fa869-40f5-4230-8430-d41cd41ddae2
p2460
aVb794c91b-7a2a-4420-8d53-ff4b865c8c4c
p2461
aVb7966e4e-7c32-4404-80bf-38f70c8afc39
p2462
aVb7b114d2-baed-40a6-87c4-58e606568004
p2463
aVb7b94bfa-fbaa-411d-8890-592b9e7a4249
p2464
aVb7e3e68d-1cd8-46f0-8d98-5da2dff6501c
p2465
aVb7f3fec6-d4b9-48bf-8bd8-7dd9df74af1c
p2466
aVb7feab3b-9310-4875-850a-845b1bfdd711
p2467
aVb802bdaf-7e15-4d64-858a-4d9df60be5d9
p2468
aVb8257608-4334-4118-8c35-3e6e6aed0d45
p2469
aVb82c66f6-52c4-4e1b-8f94-567c9ebb38cf
p2470
aVb82c70cd-b6de-45a3-8d4c-261cc9f861db
p2471
aVb841d41a-1cad-4975-8b3f-15f2965b5d52
p2472
aVb84c4e37-8c78-473c-8b45-212aaf80a19f
p2473
aVb87b0719-6b2b-4176-8d96-c5b01f6b6b5a
p2474
aVb8872ab5-b383-4735-805e-49a4fcad3846
p2475
aVb890ec9a-d53e-4f56-80c8-36e25986717f
p2476
aVb8c166ef-0b6a-4eda-80fb-d7d80edeeb9d
p2477
aVb8e596ae-7408-49b3-88a1-9a5efe67491e
p2478
aVb8f5491c-aa8e-4242-84ad-9a67170f466f
p2479
aVb90a0cbf-78e6-4e39-823a-5eb7720f41e3
p2480
aVb90a7b6d-9c39-4266-8ae4-be37b676fcef
p2481
aVb947329c-8451-4a4f-82be-71b66310646b
p2482
aVb954d6aa-259d-45dd-8959-11ccd30432d7
p2483
aVb95af962-bf6b-4fdc-899a-2008870ff003
p2484
aVb95df301-ccfa-4a00-8039-17ad28043496
p2485
aVb96556a1-6aea-42e9-86b8-de8cebb9f263
p2486
aVb9791448-9b47-49ab-87b7-23586d4b6c37
p2487
aVb979461b-3ee7-4af4-8716-8f0350ef1397
p2488
aVb97bd105-b805-4204-8a76-e5857d126280
p2489
aVb9826872-6cf2-4898-82b5-774e4d2969f6
p2490
aVb99f73bf-ff5f-484d-8c53-78516db3fb89
p2491
aVb9cb0fdc-2520-4991-859e-a0bc2d40d87a
p2492
aVb9cfb853-f6e7-4ad6-83e1-3ed934ba30ae
p2493
aVb9e94265-d692-47bc-8415-9c137be02f24
p2494
aVba13825d-bdcc-40c9-8187-e4a4684f6c1e
p2495
aVba1d538a-0cf5-406d-87ef-5ce35179f3ba
p2496
aVba24f57f-2f80-4fcf-8b5b-0dd62af2a62a
p2497
aVba40e576-7045-44e9-85b4-1a5be2e9f0e2
p2498
aVba493ab4-e5cb-4014-878a-cb1bf69d3d01
p2499
aVba559fe8-bc11-4b49-82ef-0fef7e4c39c9
p2500
aVba7239b6-6db3-448c-8f55-7c01f5fdf74f
p2501
aVba7e5ce5-64a8-44c3-828e-6e74cdcac23d
p2502
aVba934718-9458-4add-820a-07d80582d87a
p2503
aVbaa0a891-e4a5-4bcf-8d27-3bc667300b4d
p2504
aVbad14853-602f-4747-8794-18afc0022991
p2505
aVbb24d37c-e523-48c3-8413-282dce35259a
p2506
aVbb3209f4-06f2-48fe-87f9-0995406720ef
p2507
aVbb351bc0-ec1d-40d6-8b35-a1e3d5299801
p2508
aVbb4850e3-e77f-4b6b-899b-5317dd3fe97e
p2509
aVbb4b3a28-ea05-41f7-87e1-8c1abea6804c
p2510
aVbb4d752b-5669-4adf-85f9-42db33756458
p2511
aVbb5d4429-32a1-450e-8c62-39048982e321
p2512
aVbb81283a-f931-4032-8ea0-d165c933b4fb
p2513
aVbb83fbaa-7335-4901-815c-f8a9ad1ab953
p2514
aVbbb93c05-e5c7-468a-85db-7058449ab450
p2515
aVbbbc3112-02af-4b7d-8566-2fe22e581987
p2516
aVbbbf1b6a-bd6b-49f0-8306-a6ef833b3ac9
p2517
aVbbd3a8b2-73cf-4044-83c6-9ed3c3ce58c4
p2518
aVbbf3fd51-619b-457f-82c8-54b41684dc8a
p2519
aVbbfd3a16-fc83-4578-8e6e-e6233cb75290
p2520
aVbc25dbb8-c8b8-44d3-88a4-7e141d0463d8
p2521
aVbc53cf0e-3dd8-4368-8c63-b8f5923d561a
p2522
aVbca1e6bb-ae41-40b5-837c-d0c3ee08f8b3
p2523
aVbcb27364-9bbd-44af-86a8-2210ae87c7d0
p2524
aVbcd49e89-b25e-4e09-8826-f317889ce835
p2525
aVbcdba17a-9cb4-470f-806d-6b51ea74349f
p2526
aVbcdca967-98d8-4139-850e-0000a2556d8d
p2527
aVbcedd517-a7e1-42a4-88b0-63c76c404693
p2528
aVbcf6c68c-a1a9-4c0e-80fc-8513f567f9ea
p2529
aVbd0bed78-00c1-46e1-8cf9-96762d7623fa
p2530
aVbd0c4de7-cb5e-4bcc-87b9-60942cf4a0b0
p2531
aVbd179316-b627-4951-85b0-2345cff6df7a
p2532
aVbd209c2b-8248-4726-899c-dafcb776cf84
p2533
aVbd498cf1-01b2-4205-855b-b6632b4004ca
p2534
aVbd5241ff-9b52-405d-85de-f865aeef5e3a
p2535
aVbd604e75-ea3a-4f03-8088-a210a2cfc332
p2536
aVbd767381-8563-401a-8311-949e6c12cf95
p2537
aVbd7f062b-d481-468b-83f7-2d36225c480e
p2538
aVbd87a46c-1068-476c-82f0-08c710442a57
p2539
aVbd8e0499-005e-4ce3-8301-3c0f9387019f
p2540
aVbd92c751-5c25-4ac4-820a-12dae9fd205a
p2541
aVbda4c287-be7a-4ae6-847d-a9a1453a0f31
p2542
aVbdb6b5a9-dcd2-4c7a-80c4-7080c54322ab
p2543
aVbddcfa97-335d-4daa-8f80-b01eb5b268a3
p2544
aVbdde3f5f-c5b7-46cb-8828-a00b40a00cf1
p2545
aVbde11bb5-6877-4c8c-865c-6039202e61bd
p2546
aVbde15802-c649-4b15-83b3-9ac5dc68b462
p2547
aVbde9cba2-f54f-47f2-8550-0953cdd32424
p2548
aVbdec4ca0-0398-4081-8f30-4905922f91ff
p2549
aVbdf5015b-bc01-4df6-89d7-b395e9f225f9
p2550
aVbe177067-92b6-4c6f-8be6-7e6bd292eded
p2551
aVbe1f4913-d8a2-4ff5-8543-1da1a0171a5a
p2552
aVbe203672-2a4e-4dd5-84f0-0212879790a4
p2553
aVbe2d330c-ad8d-4a81-88bd-e175140503fd
p2554
aVbe3880f2-0d04-4583-8265-611b231ebce8
p2555
aVbe54d81a-82c5-4cfe-8059-032c1cd7cae5
p2556
aVbe56fbf8-b575-4048-8c03-9bb9c273e26e
p2557
aVbe5b6b63-19b9-4f64-8caf-e590f418340d
p2558
aVbe697e18-db2a-4b61-80e8-98fb2daa8226
p2559
aVbe841097-8a47-458a-8857-2fadbcc8ce5b
p2560
aVbeb05b1d-36ff-46db-8682-1f00e94f5eaf
p2561
aVbec761b5-4bd8-4b09-8468-08a49074facc
p2562
aVbed60dd6-84ae-4e84-8b4c-db6b6d6cda2a
p2563
aVbee6e616-56d4-429a-8dc6-8f9f91fd6797
p2564
aVbeec7050-2191-4ffc-8cc5-b7443ad6150b
p2565
aVbeee8b5c-e383-4519-8631-bb687713c1bb
p2566
aVbef5c59d-be3c-4a87-8dc4-589fa9f8a5b1
p2567
aVbf00b78c-a740-4c8f-8d43-601f7b028bbd
p2568
aVbf0b53f9-e8a0-4376-8dd1-2ba92f10ead4
p2569
aVbf154f28-049f-4a0c-8fb8-b50bbe67a245
p2570
aVbf165bc7-b361-4e01-81cc-ed00ba0480d2
p2571
aVbf22f761-11fc-44dd-8dea-f6b23ca26006
p2572
aVbf341133-6301-4a2f-80b6-8cc8ccf37133
p2573
aVbf3bc16f-2144-4346-8efc-1d6a7418acd8
p2574
aVbf42c14d-38e3-48c9-88c4-fbe34b1d33dc
p2575
aVbf42dff0-d5e8-4206-8417-daa62889b8fd
p2576
aVbf67a803-dd90-4a86-8941-e0934b329270
p2577
aVbf8e1f90-7d7c-41bc-855a-81f874fb65dd
p2578
aVbf94afb2-36d7-43ad-8ca3-99fc102859e8
p2579
aVbfa38987-1c83-4f24-8dcd-28bb503b6b3c
p2580
aVbfb076ad-e79f-462a-8e3b-7c43c8485292
p2581
aVbfbfd991-c867-4583-82a6-8dbc0cdf5f5f
p2582
aVbfc8ed52-f9cb-4e53-8364-7d1f44f2c949
p2583
aVbfd18ea5-401c-4fb8-8406-d273483ef5bb
p2584
aVc005245b-0d8f-48b7-8688-d0fba1b20a0b
p2585
aVc021512c-a952-4d52-805c-224ebdb4576d
p2586
aVc05d1767-1b4d-4618-83dd-06ad6c7f7181
p2587
aVc066925c-1509-4f96-8bd1-e0e9bc4028fb
p2588
aVc068f6b2-09b6-44c3-823b-c8fc9d465847
p2589
aVc06ca3f0-a2e2-4313-8eba-78a15857b082
p2590
aVc07b0fe7-38b5-498d-842d-888104832dbf
p2591
aVc07cb33e-7365-40cb-87cf-5bdb85274aa1
p2592
aVc07f1d07-917f-479a-837b-0b22931bd32f
p2593
aVc089a7f8-d3e6-414e-8dd8-21075b2f77f2
p2594
aVc089d981-d6d0-423c-8491-37af2ca98d8d
p2595
aVc0a261a0-4d0b-4124-8865-4fb49f513bcd
p2596
aVc0a2811f-ac6d-44cf-8359-026201064cb9
p2597
aVc0a879a5-58c4-4eb3-809c-c0028f5c27d4
p2598
aVc0c2f734-103a-4098-82bf-46c1446f8ee0
p2599
aVc0d4aa78-2497-4bfd-8a78-f86097e57ff4
p2600
aVc0e56cc9-5924-4902-869a-b4ecdcebaf7f
p2601
aVc0f06af7-b192-43c0-87cd-e3db1d6474da
p2602
aVc0f08336-dad8-4f28-8395-25aee653e929
p2603
aVc109cd93-2cc7-486b-8a1a-51eddd58f5e6
p2604
aVc11628a3-5e31-4b15-8518-d431f8647b83
p2605
aVc11f3e2d-c1c8-4aec-8d12-adde5b383200
p2606
aVc12c94d5-0742-424f-84fc-e469e29b8c8e
p2607
aVc13cb99d-67cd-4444-8bec-4d15c5f8110e
p2608
aVc140b72e-a475-48d1-82f9-7db0b81b32b4
p2609
aVc1447a4f-123d-43ee-8f2e-c759bce25a9c
p2610
aVc15abd6f-1d95-47dd-828c-b0a01f2c1472
p2611
aVc1660332-0320-4693-8d73-3df00207504e
p2612
aVc16bcbb8-6c14-4b61-8080-0c6602cdc9e2
p2613
aVc176194a-4049-4431-8a2b-e0ed9bb8c5c7
p2614
aVc1a9ce30-4c7a-4f28-8d83-3514f016d079
p2615
aVc1b205a5-de40-4e27-89e0-b4b318072bdb
p2616
aVc1b86393-1a25-4806-8fc8-7c4367fbb11f
p2617
aVc1bc9f0c-41ba-4944-8b31-3ae9869dcb41
p2618
aVc1bea6a3-658b-46cf-80ea-9a250adcc5c9
p2619
aVc1c16b01-cdaa-405b-84f7-c53582d76f67
p2620
aVc1c9dadc-719e-4d7a-8af2-f70d38825ba1
p2621
aVc1f7aca0-a27f-480f-82bc-a789e91302df
p2622
aVc206f477-ebc0-4e95-8375-3ac5f4e774f3
p2623
aVc22eedc2-6d22-4cf2-8976-773c2f4ee525
p2624
aVc23c437d-cc7d-4f99-86eb-cea4a448d9e7
p2625
aVc2528d39-5c53-401a-82b3-6104f45e9843
p2626
aVc25a32a4-3ea1-4b0f-840f-28bffd440143
p2627
aVc2609958-f555-4164-8b26-a276ef2c5741
p2628
aVc2749762-f79c-47ac-8f46-b75992eb2b51
p2629
aVc27b1e53-de54-41d0-8521-9f4abc020e36
p2630
aVc281e984-7dd8-421c-8a9e-4b76e0670eb0
p2631
aVc29b7603-73d2-496b-8300-a48c5c80a0eb
p2632
aVc29d2647-11d5-4185-84ea-a1d6e008926d
p2633
aVc2abb8dd-8766-441b-8fe1-164cf3ae5d5c
p2634
aVc2bf600c-2091-47d9-889c-3414d89290de
p2635
aVc2def8bf-c75e-4ffd-8002-c0fc592907a9
p2636
aVc2ec6a05-7a55-4221-899c-7a76a9d8449f
p2637
aVc2f23fc3-6a99-4200-8650-ad87e03e9713
p2638
aVc3157e39-ede0-41dc-8b49-d308576844d6
p2639
aVc33cee96-7aa1-416a-835d-7f60450c4649
p2640
aVc3479cba-1127-4904-87a0-34b529ea8c76
p2641
aVc35f1277-7060-44f4-8b9f-e216fe4d116a
p2642
aVc3901d1e-025b-4b1d-897b-fdfdc98f6ec4
p2643
aVc39bf05a-c0fc-46fe-873f-9733ecca2add
p2644
aVc3a0664e-4b8c-4799-84db-32d92f9ca2f0
p2645
aVc3b70349-ba34-47b5-81e7-cd73d16d193b
p2646
aVc3b84ac3-bd8b-443e-8875-69f46f6ec926
p2647
aVc3bdf4ad-157d-45e1-8762-ad7cf67b3e08
p2648
aVc3c74ffb-7c03-4a01-8d77-717985785da7
p2649
aVc3eb25c6-7b76-477e-863c-b9c40142ee83
p2650
aVc417918e-7278-467b-8321-b5a3295ee97c
p2651
aVc41f6e62-4976-42b0-8505-2ce30c49ae24
p2652
aVc42359f5-6a59-4b25-8064-be98a3fdc79f
p2653
aVc42e7dc0-326f-4d09-863a-42e9315e2c84
p2654
aVc432472b-08f4-4ab6-87fd-df8aaf08fab9
p2655
aVc4347ec5-999a-4917-8075-0d87dc457cba
p2656
aVc438f1ea-9427-4132-8c19-f17cefa099a5
p2657
aVc439cf30-cbbf-4aad-8811-1f71e1468245
p2658
aVc445ca62-bfc1-4572-8390-f5e2df195781
p2659
aVc45f2157-5be8-4f5f-8e12-3227b5bf2fc4
p2660
aVc475ccfd-b8ad-47d5-84bc-ea94100dcdb3
p2661
aVc4b3de02-5a55-451f-8f04-7346e6ecc790
p2662
aVc4b61a1a-95bd-4d40-8f6c-93d7e40f0875
p2663
aVc4c48863-8b87-4a03-8c2f-2ab5f13f8713
p2664
aVc4ccae44-34b4-4bab-8b3c-7cef57235574
p2665
aVc52e66c7-1d0e-425c-848c-38b65ad50956
p2666
aVc533fef3-6f9b-4ffe-8efc-4f614ca63e95
p2667
aVc53fc3e3-6c18-4cb4-867b-f082efdc9b1d
p2668
aVc5481794-ccd4-4b58-8d10-a69aa4b79c3c
p2669
aVc5a440d2-fdf1-4df3-8655-e7fb1872e342
p2670
aVc5ac57ac-7b3f-4a57-8588-1be0354c4b94
p2671
aVc5be1894-ec91-41f7-8dbb-5cc50ec68123
p2672
aVc5c04eb1-e493-4826-888d-96d77ecdee5d
p2673
aVc5cac412-af3f-4d0c-8154-def38054306e
p2674
aVc5cb8da2-3cdb-445f-866a-169bccce4112
p2675
aVc5db70f2-9bc2-463b-8c82-99dbf4ba47bd
p2676
aVc5f39d57-622b-466b-8069-d0877a1c8de6
p2677
aVc5fedb5a-7dbd-4c0a-8e28-75597fa47448
p2678
aVc6152d45-4cc9-4572-8a3b-e120fec069ff
p2679
aVc6451e0a-dedb-4a79-8449-33c125e16807
p2680
aVc64a5f8f-23ed-4b04-85c1-fdf4e25a5512
p2681
aVc64ac6dd-1a80-440c-8887-d0b5b688bd78
p2682
aVc64cf6bf-bc25-4761-8519-85aded3ea2f1
p2683
aVc6678eca-24b4-4b14-8fb8-9ac528c88b39
p2684
aVc674b31f-f391-4921-8c2e-69e4a045d9c8
p2685
aVc677020c-5225-41f2-8da5-95120a568b06
p2686
aVc69db5eb-a26f-4df5-8cd0-711fc36945d9
p2687
aVc6b7029a-492f-4de9-80cf-d7e9d608c861
p2688
aVc700570b-f999-4287-8df2-7682c369d09b
p2689
aVc702301b-235c-4e7c-8513-11a2aaa6d226
p2690
aVc7080c4c-e1e4-40c0-8e1a-97f07bb809ac
p2691
aVc70e9eb8-6867-4ade-8f85-0c05db0670a9
p2692
aVc7215491-7172-4678-8115-d7b9e86b741f
p2693
aVc7254653-bf14-4524-800b-75feed01f54c
p2694
aVc73132e3-18ff-42ed-84a3-4bf9d2243dc4
p2695
aVc734f4f1-47a5-4d79-84af-b61a99424c95
p2696
aVc73b8d52-b741-4632-882d-1ab28036025f
p2697
aVc7804f64-dd8e-4ec7-8ef5-a733d4e9463e
p2698
aVc7985236-a63e-4977-88dd-5d4acee1ea2a
p2699
aVc7c152ea-d428-4798-80de-96af05cc2fef
p2700
aVc7c32228-5cca-4f97-814e-56dbcef210bf
p2701
aVc7ca7aa7-1985-4c49-8570-ad54cc8e69db
p2702
aVc81647b8-1f6c-4fb3-8f61-45746211ef27
p2703
aVc81c142b-82b5-4697-8477-10b7f0dc31df
p2704
aVc823bcb2-4b37-4ba2-86ec-40292b2e4d06
p2705
aVc8263d44-7aeb-42ee-8510-af389448fccc
p2706
aVc8337ebf-8e73-46ec-89b5-d4fbaf1aad6d
p2707
aVc836d614-0e40-495d-834a-f139d5c3920d
p2708
aVc845cd3b-e36d-41d0-84a1-c75450bd1a87
p2709
aVc8733c15-431e-45de-8b04-62498c463278
p2710
aVc88c770c-eea7-463f-8d89-f530db37c639
p2711
aVc89287bf-d194-455f-81dc-6842749ba723
p2712
aVc89b1457-f58d-4d81-8950-816d9f70c9dc
p2713
aVc8c963f9-ca87-4409-8fe4-028318123225
p2714
aVc90d89df-5fc5-424b-8f7b-6c6c9aa97578
p2715
aVc9138add-e5e1-4802-874e-1df6acb08ec5
p2716
aVc92e0d20-a969-44dc-8334-99c22a5b7a28
p2717
aVc92f0301-912c-4a22-894d-062042f882be
p2718
aVc930db63-558a-4217-8d05-e15442734d4c
p2719
aVc943e098-85a0-48cd-81c3-19b09069f639
p2720
aVc9567f23-9594-4648-848d-a4ae0a8eaf57
p2721
aVc95c160c-4007-4c3e-875f-7ae7948b91f7
p2722
aVc9785669-7b9f-42b8-8a38-4b0da1f5ba8e
p2723
aVc989760a-0a30-4c10-8925-ddf7964791cd
p2724
aVc999af60-e3f1-4858-8b75-52981b6a0446
p2725
aVc9b6d681-5127-493f-8f12-fb84a9aa7790
p2726
aVc9c9d7b5-0488-41cf-80a3-471bfc3fc14b
p2727
aVc9e6136c-5bfa-4e4e-8832-2bdd5e6dbb11
p2728
aVca081294-631b-4114-8d0b-38be7d80d110
p2729
aVca20e471-6623-4ff6-8716-2471567c1ebd
p2730
aVca3d6584-597a-467c-88cd-909153e4806e
p2731
aVca539fe6-d040-467d-8959-239d3999666a
p2732
aVca783df5-c3f1-4ad7-83d5-83c9c4332627
p2733
aVca89eb3b-a507-4c5a-872b-33c919d37d74
p2734
aVcaa82080-e378-469c-8204-8c91be766ccd
p2735
aVcaa95eda-30c0-454a-8e3c-3f832b55eec1
p2736
aVcaae58cf-9fe8-4311-84f9-5674a6db2c9f
p2737
aVcabe6d33-67a8-4287-80b4-68bfecb4b829
p2738
aVcac442b3-0b44-40b6-86b0-3eae0e06f248
p2739
aVcac62de7-b954-4dfe-87b4-4e6ed752a856
p2740
aVcaec1b6d-ddb1-4db9-8495-9caef4fc3941
p2741
aVcaf10758-419a-47c5-8406-312972441ac6
p2742
aVcb7bc76e-cf95-4b34-86ae-2ed1a4871e7d
p2743
aVcbb4d9ac-df06-456e-8dde-8f8a5859e5c9
p2744
aVcbdbb0e0-00bb-485d-8fb8-162e3b41676e
p2745
aVcbfc75d7-0429-4e74-81f7-2831f33f170b
p2746
aVcc0fae75-425a-45a2-8948-7cad94f11ea4
p2747
aVcc481bd6-52f2-48c7-8427-0c0da9771a48
p2748
aVcc53c28a-5cc5-4879-8b03-a10f91f4a046
p2749
aVcc58adf4-ad1c-4c19-8d9f-e7977ddccb5d
p2750
aVcc719edf-d875-4a36-8416-d61a62f56bdb
p2751
aVcc7c27bf-4718-4a05-8f41-14aa37dd2568
p2752
aVcc7d92a5-2536-4b30-8539-a588f031bac8
p2753
aVcc8ec129-d303-496b-854d-56799d6d5a77
p2754
aVcca1200a-811c-4e2c-8daa-35fbd45da891
p2755
aVccabf0b8-83fa-45cf-8d83-28fe6c5dd101
p2756
aVccc2af45-e4a0-4ff2-8e7b-84e55cac1ef9
p2757
aVccc3a179-2c87-4268-8d5b-6a316459e837
p2758
aVccdbd97c-4444-4739-871a-6e5c34a32ddc
p2759
aVcd07bcb2-826b-47a6-8ea3-1aaebf8e75bd
p2760
aVcd161f63-4011-46a7-8013-3a466d8d58dd
p2761
aVcd16d961-2feb-4c28-8027-22f71a4c60cc
p2762
aVcd22823f-476c-4b03-8256-c59fbda366f2
p2763
aVcd27c77d-69c7-4757-8d1c-ac495ccfcdbf
p2764
aVcd3477d3-687c-4300-8bfd-23fde70aa273
p2765
aVcd3b571b-d940-433b-86d1-72e2cef5fb72
p2766
aVcd42e69e-1f38-40a5-8b47-578c69f9ce30
p2767
aVcd4c0c78-35f5-4796-8f11-2c9aac3af623
p2768
aVcd5df163-ad22-453e-8f83-52d7b21f42b8
p2769
aVcd6e50bb-f863-45da-8c8b-ae329a9300be
p2770
aVcda0cb4e-1cba-4b2a-8805-e935cd3e1bda
p2771
aVcda8d41f-ede5-45a5-8f14-8360ce40a75e
p2772
aVcdcd04d3-f69d-445f-8d46-464b0f20db85
p2773
aVcdd8f3cb-d24f-4666-8eaa-a085afaa3978
p2774
aVcde17651-eba6-4737-8b5b-fff868631221
p2775
aVce005369-b514-4c58-8cd4-d40f2ac6a233
p2776
aVce5676c1-0866-4bbc-8055-25fc04524c6c
p2777
aVce977fac-e251-4168-871f-5f999c5eaa0c
p2778
aVceb7e6f6-5d34-4069-83a6-1bd68bf5943d
p2779
aVcec804ae-c94f-42b5-8e8c-31fee8fa7b33
p2780
aVcecf3e11-f01a-4d2d-8606-cf15dd2a2f8a
p2781
aVcee074ff-1ed0-4b45-8acc-e39eacad9d5e
p2782
aVcef26646-9efc-4a55-8ab7-8abd09495630
p2783
aVcf0f86ca-adbf-4be0-8df3-1fe1c1a96672
p2784
aVcf56b177-e25d-4992-868d-0c84a24d2243
p2785
aVcf722c15-ed4c-40e5-8850-2049afe66c3e
p2786
aVcf95a589-43d8-4574-843b-d7172819dd63
p2787
aVcfe2ec42-395f-4bb1-88fe-4ca3a73334e1
p2788
aVcfe8f1be-33de-4079-8e5b-557e24201c8a
p2789
aVd0134341-7b1c-4fe6-8fff-7201f0e62cb0
p2790
aVd01b0597-f556-4dbe-81e6-7368961ecaeb
p2791
aVd0282b60-5237-425b-8890-9a6ceb21cc24
p2792
aVd04fcdd1-3656-4b29-880f-6898677433b6
p2793
aVd0a48d8e-0a72-45a7-8463-2570de7427f8
p2794
aVd0f39d47-461a-459f-836c-1721223d0ea1
p2795
aVd11ea156-5115-44db-87ed-193e94000c24
p2796
aVd13ac894-6492-479f-8ff5-24b8e0264589
p2797
aVd1796b52-d21c-42ff-8c85-ee1030d503e0
p2798
aVd181afda-c324-4486-89a4-47d81979dbe1
p2799
aVd196117d-3e64-454d-8fb8-6e5f7fe239c6
p2800
aVd19e140d-66f8-4ad2-83d5-27a951e5f6a0
p2801
aVd1ab6d29-00f3-4c8f-8c23-143bc6619461
p2802
aVd1b66d93-f882-4bca-8f62-0ad8645cd496
p2803
aVd1c6706e-498d-401e-8bbd-8e7478a8b308
p2804
aVd1c6c6a5-7c4f-4a4d-836d-d2208ba50721
p2805
aVd1d8ab63-4c14-4190-8f39-2e4fbb090027
p2806
aVd1e1214f-a0e5-4d45-82e7-c4b57a73c1c9
p2807
aVd1e830d6-754a-4bf7-8b8f-3b04f098e70f
p2808
aVd1f21b0b-f243-4bf4-8cd3-b42d499e8c52
p2809
aVd2097ba6-c63e-4377-8231-b82edc743e1f
p2810
aVd2136425-3a78-4c77-874f-31f970b32a43
p2811
aVd216051f-4521-40a8-8b52-82cd1adc71c2
p2812
aVd23af65a-87ab-4281-8999-b6a1a4a54324
p2813
aVd246b71d-02a9-4201-8347-a8f502b42cca
p2814
aVd2abecca-1068-4416-8c63-107639611e6d
p2815
aVd2b100db-9051-492d-8ca8-0e57283b3a7c
p2816
aVd2b8820d-398f-471f-8a37-78d10bf1a7e0
p2817
aVd2be24da-337a-4f6a-822a-951afede009a
p2818
aVd2c3c306-522f-42ee-801e-fcf22bbdbd5c
p2819
aVd2df035c-685f-4538-867e-4f82cff50afc
p2820
aVd30215c2-f31d-49a7-84d3-164487595d24
p2821
aVd32b7add-0d03-4dc3-813e-47c4b8bb6c0b
p2822
aVd33eca94-b40d-4d68-8027-842b56feb130
p2823
aVd360039b-c70c-41da-8087-32d74357702a
p2824
aVd3709612-8107-456a-82c2-a68f7d5388c6
p2825
aVd3731a8c-5804-41dc-87bf-05098b0c1fec
p2826
aVd39a36ba-07c4-4041-8616-ffe83fbcc594
p2827
aVd3b1b2e0-66bf-4da5-8de9-7e4c84a27700
p2828
aVd3bf4d78-d7ff-4204-8eaa-a65fafff772b
p2829
aVd3c346e3-980e-438d-8f51-79b601ed6be3
p2830
aVd3d114a7-8344-45ee-899c-afa75c59b5aa
p2831
aVd3ea5ba3-6230-4b1b-83f5-4dbcd7c6dad9
p2832
aVd3f73c3c-05bc-4b82-8df8-0ae251a4db87
p2833
aVd3fe2eb1-57d6-402a-80cf-b6446808bdd2
p2834
aVd422302e-c66e-4abe-8d95-f9acf5878a62
p2835
aVd425f0a9-cd06-4fe6-87d1-6d7ea933209d
p2836
aVd42b1f63-a4b3-4cd2-8dde-8aa81830af7d
p2837
aVd4456fa8-4023-4594-8412-eb7c5c5a1121
p2838
aVd4548a61-74b0-470c-8074-ced6bf8a1ea7
p2839
aVd4a37924-e254-462e-8a81-ad8d6e80b8fc
p2840
aVd4a61c48-3c43-471a-8723-255e76d711a2
p2841
aVd4af8ad8-e6e3-436e-8b77-873f6268e676
p2842
aVd4c31952-84c5-41a1-8222-8ba6bb055b8d
p2843
aVd4c9ea2b-5319-4c2d-8758-c24bb3096106
p2844
aVd50173df-b575-4856-8f2c-c45981c65593
p2845
aVd5252e6a-b73f-477f-80e6-94cc4f2f10b8
p2846
aVd5319ed1-323d-4531-8279-c99e7b30770a
p2847
aVd538a7e5-3485-42ce-8546-2ee2ec1aeec1
p2848
aVd53bd8c0-4f09-4f8b-8973-e7d13dfe8534
p2849
aVd5662691-1214-45e2-88d6-773728d2d96a
p2850
aVd5a6203e-0a13-4e5f-80f7-8177b4a1d984
p2851
aVd5bf437f-ef28-43c3-8255-e299f9a79675
p2852
aVd5e30df0-94cc-4a44-8205-d14b6a0f36e8
p2853
aVd5eacde1-0a95-4082-8b99-d66e896dcb9f
p2854
aVd5f92d43-c83c-42bb-8b5e-d51f76f23b46
p2855
aVd5ff05b7-925b-4fec-87b9-8863828abb4e
p2856
aVd60945e8-3ce8-40fd-8328-689503c49692
p2857
aVd614ff48-6e11-4cbc-8281-fa52b22c7b4e
p2858
aVd61da7c4-3f87-45f1-8dba-dfc0290854a6
p2859
aVd6306f03-b688-4d43-8b5c-7292a0400be3
p2860
aVd66155f7-4546-42cd-8032-8fde726508fb
p2861
aVd673af87-7e13-493c-8676-4f643389db97
p2862
aVd6767ead-219c-4630-8800-28face7c81a7
p2863
aVd68890be-b9ed-4a41-8b7f-91303153d529
p2864
aVd68dc0dc-be1b-4532-8d31-de65756df451
p2865
aVd6aa3636-13e5-4873-8331-637f4404c47d
p2866
aVd6c09003-ad48-4404-8cb1-4247157888ea
p2867
aVd6ddf2ef-e288-49c7-89b6-6c6a8f6ed9da
p2868
aVd6dfb8ad-9a28-4a4b-827a-d2b3363ac5d0
p2869
aVd6e0f10d-0920-43b6-80d1-62be9280e064
p2870
aVd6e4b4a8-72d3-4a0a-8ab9-83ebc26b2aef
p2871
aVd6f355ae-bf61-43b0-8ad1-a0d9b814092d
p2872
aVd6fef47e-bd0d-44a9-83fd-ac0395201933
p2873
aVd71fadab-6131-42a2-8cf2-8a6c5403e4d2
p2874
aVd7299fbf-8ccc-4d98-8db0-61fa87d9a295
p2875
aVd73eae19-9d29-4423-81a5-2c7d7830c9d5
p2876
aVd76dea49-04f4-48c7-868f-cf67350a3a11
p2877
aVd777c644-44e1-4ec9-8205-96294417f7be
p2878
aVd7a4aa6c-07e5-4cde-8ecc-270928893434
p2879
aVd7c38420-5f36-460e-804e-55a0a88f1211
p2880
aVd7dbdccd-4a26-490d-87e5-cad833d377af
p2881
aVd7f37873-5df5-49a8-8573-c14b00f97e62
p2882
aVd823062a-de83-4eff-862e-6b3f85e2bd40
p2883
aVd82e6999-a226-45c6-8fb1-e442597f50d6
p2884
aVd84cd71b-91f3-4a6a-8323-801373db77bd
p2885
aVd86dab6e-5db3-4d99-89f8-d48f6ada9315
p2886
aVd883b040-42ac-41ee-8e50-1fb6f228c9b9
p2887
aVd88630e2-0fae-4925-8509-1e5cc7b7b737
p2888
aVd89361bb-1387-4631-8f40-8d14a3ff402d
p2889
aVd89d9950-b1a2-47da-8ba2-0171be300a3f
p2890
aVd89edaf9-e01c-4564-8992-26218dadf0c0
p2891
aVd8a95713-5034-428c-89ef-2f99cb2316b1
p2892
aVd8ca13f8-4c25-4339-83ad-adce48321dab
p2893
aVd8f49f5a-2cdf-4abc-8a0d-4424b492a991
p2894
aVd91b2180-a219-4045-8f2b-bd8b9133b58b
p2895
aVd9220029-853d-418e-8c70-8eb45086ab81
p2896
aVd976763b-5d5e-442e-8f31-48f9102ac66c
p2897
aVd97a9af5-483b-4d93-8a93-edbc7f4ec827
p2898
aVd97fe711-48bc-478d-85a2-18de2cdaf89b
p2899
aVd99732d2-3881-40fa-8c5d-ca9f7e050c19
p2900
aVd9a77db2-560a-43ff-80c6-aa89ed5c8c23
p2901
aVd9a8ee26-7094-4a16-8b5b-08cc5cce48ad
p2902
aVd9d53336-b5b4-43eb-8698-5f6f145b5faf
p2903
aVd9e156c6-352e-473f-854a-768e4c1737a1
p2904
aVd9e5e09b-e433-44bf-8a2f-61ef84f022e3
p2905
aVda153a0a-b676-4135-89ee-8d61ec253bea
p2906
aVda21498f-061b-476e-8e8f-b7423d036c17
p2907
aVda244d20-c03a-4685-8830-0c9bdae314e5
p2908
aVda447007-fb87-49a3-8acb-9365f7b16036
p2909
aVda475fce-5926-4071-8ebd-dc3f693a99fb
p2910
aVda52301a-f3a9-4360-88c4-36dc3f7a33db
p2911
aVda561d80-eadc-4ac9-8db7-7c09ef337208
p2912
aVda5889a6-2134-48f6-8769-ae265bcce696
p2913
aVda5bd769-2f55-4501-8335-45d158d195a7
p2914
aVda69c19e-a11c-43bb-86ec-ec191753e2d5
p2915
aVda72b544-45b0-4696-8ede-ad8186a46f4f
p2916
aVda7e1473-6e1d-46c9-8898-9613b0b7a96d
p2917
aVdaa5dfa3-3580-4e3b-8f6d-87cfd48b5b75
p2918
aVdaa6c1e4-e715-4428-88a1-fe3ff96ae2b1
p2919
aVdae1b0eb-64df-4764-8f10-e9d9c8d68d19
p2920
aVdaf48fcc-0e85-456e-88d7-1b662c79983c
p2921
aVdb2376c6-2f76-4368-87d1-7cabab3afb06
p2922
aVdb25170a-9ef2-4827-836e-a9b18145d4b2
p2923
aVdb4371c6-d562-42a2-8f6d-c075bc55da3b
p2924
aVdb4d32c4-db87-4f31-89e5-8736770365bf
p2925
aVdb507ae7-50c3-4b56-877e-862e30283434
p2926
aVdb55d137-17d9-47eb-85e0-7f3d44eaedd2
p2927
aVdb5fb960-5ba7-4cce-85a8-7ac196214d6b
p2928
aVdbbae8fd-c1b3-4967-8e39-42360d4a4bd5
p2929
aVdbce4181-c643-4b01-8454-2fc6ce1ea675
p2930
aVdbe170c4-b6bf-4eeb-8cd7-5a977ac9d9eb
p2931
aVdbf9839f-fbfc-411c-85d2-1729f2087e5f
p2932
aVdc0ffedf-fb65-45bc-86a9-5aa737f409f4
p2933
aVdc2fabf8-30d4-4ea8-867a-c3bc8f3a0bf0
p2934
aVdc312fb5-611d-45a0-8c79-ec748bec76d8
p2935
aVdc4baaee-6cf4-47f7-8bad-295f7af648f4
p2936
aVdc4d4a3a-9205-4212-87f5-c4683ad6e228
p2937
aVdc6200fb-3d62-483a-8c4a-8b333d575f33
p2938
aVdc659bbf-141d-4ebb-800f-3d5ce39263ee
p2939
aVdc8c08ef-7651-47b6-8f10-a5dcc20aaff6
p2940
aVdcaa9566-896c-4f35-82be-696e990b948b
p2941
aVdcb294ff-7887-49f5-86a0-fe9636fcbee8
p2942
aVdcb31360-bddb-492a-8e20-b81cdabb44a9
p2943
aVdcbc5e66-f057-4089-8d55-0d62e819fa95
p2944
aVdcbe7b2f-361a-4703-8162-2eb2a955467f
p2945
aVdcce676d-3f5c-418f-8b53-51becb6c7b7e
p2946
aVdd15994b-6193-4ffa-8837-6d59ec298be3
p2947
aVdd17e5f0-6c8e-48ad-89e3-07895fb80579
p2948
aVdd5b88a4-6be3-4d0a-8735-f4b864262685
p2949
aVdd5fd4a8-952c-415e-8e47-523b6df826c0
p2950
aVdd75f722-90b2-4ed0-850a-7c88ab33a067
p2951
aVdd985158-ba21-482b-8dac-453077e88c21
p2952
aVddbb2d50-0b75-47e6-8658-d37a13c73459
p2953
aVddd992ea-1d54-41ad-8eb7-a4e71ee75a3c
p2954
aVdddb54d0-7c3f-4566-8544-5f93ede44a56
p2955
aVdde6762c-c004-43ea-866a-ab3b5ddae034
p2956
aVddefdcd0-6293-4a92-8633-55e0dc190872
p2957
aVddf03f1f-7907-4209-8c0b-6f4994578e87
p2958
aVddfac6b9-d32a-4067-8d63-76eaa55722c5
p2959
aVde004124-e9d5-4a29-8e2f-0ff7dc8855d1
p2960
aVde08c6ad-5710-4659-8023-6a460bd4349c
p2961
aVde21b26d-d362-41ba-83cd-b9e1eb540de4
p2962
aVde276331-4177-461b-86a4-8e5a9c07db9b
p2963
aVde4edba5-1eb8-4c2d-85b3-06ecef207d40
p2964
aVde565505-c3df-4ad1-8c63-a644cda1b285
p2965
aVde66ee29-9eb4-48f8-8663-c2d1c2080b8e
p2966
aVde7028cc-dc83-4c25-8925-3978eb3f5652
p2967
aVde81a647-c5f1-4bb0-88d6-7b20d9bafe90
p2968
aVdea3aed5-eb62-48e1-8f13-66e5ab20963e
p2969
aVdeaa5311-f255-43e5-8126-ef1a1a1f7ca7
p2970
aVdeb0116c-0de7-4646-8007-b446dd48f46e
p2971
aVded52a38-6bd5-43c0-8909-f0d214d78d82
p2972
aVdefa8933-900d-40ec-86da-486fada724c5
p2973
aVdf2331ab-f943-4e6c-8350-80eae5fd539e
p2974
aVdf45b710-af3b-4b74-8fb1-6407eec8c30b
p2975
aVdf55dc57-d6f5-45ed-8518-ef4c5690fafa
p2976
aVdf6120a9-cce1-48c4-8465-6956f395fd4d
p2977
aVdf6d9b69-6a5b-4770-80d6-b4d19643939f
p2978
aVdf9096a8-2d45-495a-8301-7f8c688887aa
p2979
aVdfa2e71a-f524-488e-8ced-c61119106525
p2980
aVdfab619a-3e72-41db-8593-0eca70d0a557
p2981
aVdfb3f269-5cde-460a-80c6-4ec7cea2ecca
p2982
aVdfd1ffed-e938-4f07-8320-8a68cf52a43b
p2983
aVdfe2e38b-02d1-4338-893c-d858793bb312
p2984
aVdff167d1-ccf1-454e-8c50-9c42c0f2e1d6
p2985
aVdff3bb48-8b0e-4168-86e7-0ba3e80ce765
p2986
aVe003326d-fd5a-4e5f-815a-d8217d2f3678
p2987
aVe00c2ffe-6566-4b14-8919-784c301eef3c
p2988
aVe010f0f7-3d43-4b33-81c1-edbd574a37d0
p2989
aVe01d4787-cc50-43f2-8b22-e11b2177129b
p2990
aVe0565540-6178-4c8e-8e9a-b6f3603c8977
p2991
aVe067c594-fee5-4a25-856f-e0db9bfb0401
p2992
aVe0762aef-eb41-4f74-8055-c37edf1561f0
p2993
aVe09240a0-bf2c-4970-8589-419c00ac2f4e
p2994
aVe0b139af-99f7-4bc7-87d2-8da4c60b88bd
p2995
aVe0cd8a7b-7497-455c-8a01-5cef8b196c65
p2996
aVe0e94e5e-6cc7-4283-8ce6-535276ae84e7
p2997
aVe0ec972e-97b1-42a7-8bc4-1e4a92d293db
p2998
aVe11bc5bd-8d12-4634-87a6-de0c7af29b60
p2999
aVe12b2421-c132-4341-8944-be79de4cb097
p3000
aVe1380126-6cfe-4f18-8608-2c8694a4911d
p3001
aVe1394f1a-5d34-45c6-8a2d-b0ad2a93614e
p3002
aVe13984de-d6d1-4386-8dc7-43399869093b
p3003
aVe149f8fd-60a8-483a-8915-b5b095e7b05f
p3004
aVe154aa7d-e868-4939-86ea-f5f1183cb57f
p3005
aVe1bb9eb5-3d49-43a7-8b08-03b04bd9474e
p3006
aVe1c4d5e7-8cb3-4cd9-8a8e-54e7868b0a1f
p3007
aVe1f59b65-43a3-4f17-8a47-0c8c18770d99
p3008
aVe21aa5c9-bf23-4385-8cce-9eaafad2df00
p3009
aVe22c24fd-c934-4437-8bd2-2335973bb7d5
p3010
aVe22f837c-db42-4e2f-8d24-748f60ddc7e4
p3011
aVe23d8c1f-5a84-4909-890e-253e47165bf8
p3012
aVe2483d7b-c7ba-448c-8eff-81a9416d5fdf
p3013
aVe27f05bf-3ac9-49c0-88ec-6e6b5d865608
p3014
aVe28cdf34-3385-431f-8b7d-83333e4f303e
p3015
aVe2937389-e103-4956-8e10-ea99e1235b9c
p3016
aVe2a0f388-932f-41c0-818b-15538b82dea0
p3017
aVe2d29d35-0247-4787-8900-685ba5507607
p3018
aVe2d3a7ea-d20c-4298-8a39-1c0e45e02ce4
p3019
aVe2dc699c-1f9d-408d-8791-67e196e25fbb
p3020
aVe2f9c9b5-8117-4155-81d0-2b192efbe3fc
p3021
aVe3014cc4-c340-4bf0-89f8-0f2a9861c544
p3022
aVe311726b-624e-429c-866a-8dd1e28cba55
p3023
aVe31e716f-6cdb-4586-88cd-97e24fb96bed
p3024
aVe3635bcd-efcd-4a36-8288-ec5f84f8c905
p3025
aVe364e89b-5d07-462d-89e0-771903e56738
p3026
aVe3667fd7-c5d7-4318-83d0-1c61a28604f7
p3027
aVe3855666-c6da-4b52-8382-2c80e583fd74
p3028
aVe3999aac-4985-4a87-84ec-527913bf1814
p3029
aVe3b96a24-02b8-4b9f-8d43-4a829a6d04fa
p3030
aVe3c8f77d-ff19-4f01-8875-8541718c0dd7
p3031
aVe41bcb1a-2730-42e2-818b-ac79cdf18e42
p3032
aVe42a2003-c2a8-44d5-82b3-84bd6b7fc56f
p3033
aVe4308541-efe8-4a92-8282-007847174318
p3034
aVe4456782-6002-4978-8af8-c85f6a76d887
p3035
aVe44b14a6-f17b-4c3d-8dfb-2364eba6786c
p3036
aVe46001dc-f5e4-454c-8102-0cbffc4b4896
p3037
aVe47b30b6-5d64-49bc-88e9-5a17e474797b
p3038
aVe47b748f-10d5-4ebd-872b-b891fc27dff5
p3039
aVe4bb0073-9869-4e74-8d54-e6bb55101c48
p3040
aVe4c0dc83-b1af-430a-8d7d-5e4eb1576764
p3041
aVe4c4362f-e504-4e32-8ae1-4c7cabd8dcf6
p3042
aVe4f2a583-0882-4bbe-8998-7fcc4de967fa
p3043
aVe5059614-09e8-4ba5-8c59-5b7c7056c3c3
p3044
aVe50c10b2-ef11-412c-8a5b-6954133685a1
p3045
aVe529fd36-d1d4-47e2-8183-5dbca867630e
p3046
aVe545568a-7da0-4dd0-8d3e-938b7a7f23f0
p3047
aVe54cda62-a69f-44a4-8cd1-bc7255616bbe
p3048
aVe5563b21-3131-48d0-80cc-bd8a8f12a2e5
p3049
aVe5675594-4cae-4f0a-8754-2ce30d44948e
p3050
aVe56e5a3f-8695-4f9a-8a67-0b0f280f7501
p3051
aVe573611e-e3ad-4803-8c05-1c0115b18d69
p3052
aVe58486b9-89b7-4d9e-8ecc-7dd3707ce980
p3053
aVe58dcb51-6354-47f9-8762-23536bbd9d12
p3054
aVe5945742-6eed-4aa4-87e0-0244d71e435b
p3055
aVe59dfc17-12bc-4f01-8695-46eb638b01d9
p3056
aVe5a5da33-6f85-4267-809e-1e89b2e0ac30
p3057
aVe5a660eb-adbb-4a74-8ddc-62aecde09c99
p3058
aVe5ed9119-20f4-4065-8b64-4b400168f320
p3059
aVe636148b-2af2-40e8-8b96-0cda3894f2d3
p3060
aVe6574f59-8a19-41e0-840e-303a9e671f90
p3061
aVe6709703-253d-4599-8cac-10027b553672
p3062
aVe67905b1-2100-4733-8ca3-eb1f5bfc2dd2
p3063
aVe68ee6db-7a6b-431d-892d-0ff6967c7dfc
p3064
aVe6964d16-dbd2-4239-8260-07ea0cf3d8de
p3065
aVe6c1eb1d-ab5d-4541-84c2-a8429de8278f
p3066
aVe6c98e46-d419-4a39-8dbd-383171a64199
p3067
aVe6d32b85-9927-4d4e-8fb5-c77021b164c4
p3068
aVe7183a73-24f0-4fdc-815a-fecc5ec42f74
p3069
aVe71864d0-442e-493d-8f34-f83e8ebbb698
p3070
aVe7265517-620b-4c9f-8f57-c2299c026a11
p3071
aVe7270dff-f02e-423f-8042-4781e4256f7f
p3072
aVe73af431-f44e-41b6-8a72-f186f094cac5
p3073
aVe7507e53-3dbe-408a-851a-594bb86f421a
p3074
aVe78eedb1-a761-404b-84fd-cadc47a2dcad
p3075
aVe799ced7-5dea-4dfc-8609-49a959dfb997
p3076
aVe79ef3b2-84d5-4642-8cd9-e72d5e565214
p3077
aVe7a9c254-9e8c-4e52-8752-2d69f67e3854
p3078
aVe7b520a0-9c1c-4e5f-89a7-29e54f29425a
p3079
aVe8202e09-2f52-4bee-807b-337454571d65
p3080
aVe822addb-a6fc-4c2c-85c1-4db7a34a375c
p3081
aVe82fa945-b4dd-463b-81c4-bcb9c0d73d56
p3082
aVe8379da6-2c52-4576-8d65-b6d6c68c699b
p3083
aVe8528eef-efd4-4723-8a9e-73d7669f443a
p3084
aVe873aac3-0d52-459d-8037-8a395c68d18d
p3085
aVe8a2c3aa-dd8b-434e-81e1-5a2617034d18
p3086
aVe8a4c5ec-4e75-4050-8a11-f13bef3bb357
p3087
aVe8c7f6f1-65a3-49ce-8fdd-38cf2888253f
p3088
aVe8cda861-68ba-449e-80e8-c21498822106
p3089
aVe8db41f4-7be1-4489-8fcc-f55f4509e8cd
p3090
aVe8e095be-1e69-473b-8a6a-7c6a86e97e9c
p3091
aVe8e2c7ef-941a-45a4-81e3-1a123e51756a
p3092
aVe8e59ec6-f941-435d-8f4a-8eedd71de088
p3093
aVe9230485-8054-449d-8d56-43de68409100
p3094
aVe9288d25-ef04-4491-8719-5cc821e0bc97
p3095
aVe95b7c49-b033-4944-8f0e-71193de3df5a
p3096
aVe95f4968-2750-408c-8a1b-c6c9ba365861
p3097
aVe9635ee6-02ff-4226-8782-c6ce1de05b04
p3098
aVe974b344-82cb-4722-8575-5fea845b96b4
p3099
aVe97c6c03-e906-49bb-8e4a-67ae85d9e585
p3100
aVe97db99e-3640-4fc2-8ac9-4f7cebf6b882
p3101
aVe994765b-adca-4a40-8268-68c13f6a8e11
p3102
aVe9b06284-ad20-41f7-88ac-2c996b97c0c6
p3103
aVe9b672a4-32c3-42da-8ecc-7baf55645bdd
p3104
aVe9b68ad9-5570-4020-831e-0b2c5542e6ec
p3105
aVe9e8eb71-59b8-4eb7-8787-b94e4c1ccbda
p3106
aVea11f51b-10ae-48df-8096-78be35738c09
p3107
aVea1c685d-1e71-4031-8c7e-d2011fb9f371
p3108
aVea4fa2db-11c3-4fcb-83fb-9ced81687c38
p3109
aVea505430-ac55-4820-863a-040582f7f56d
p3110
aVea53e404-9e6c-4fd8-8e7c-3270c5ca01e5
p3111
aVea580158-7e83-4b44-8d3a-d1a329e8ce53
p3112
aVea627122-24ad-4168-89ef-b746b4fe46fc
p3113
aVea66cd60-b3b7-4ae4-83ef-0c801cab793e
p3114
aVea67173c-4f76-4259-83e5-557e97ae85fd
p3115
aVea6a6ead-6761-4015-8a57-b0b33af589a1
p3116
aVea7a7b26-d77b-434d-81fc-9852632733f9
p3117
aVeaad03bb-d42a-433a-8650-1ba5c63d648f
p3118
aVeacf6239-2665-4477-8a66-b18c89a72c92
p3119
aVeaeafc8a-0e23-4f9b-8692-e576ff1d0113
p3120
aVeaee7127-1e55-4690-8d40-069ddc1c72e7
p3121
aVeaf6f3d6-33fb-4e19-8e77-a74571bc68bf
p3122
aVeb0184cd-ee60-4049-83a5-97e32ecfe511
p3123
aVeb0f9ad3-6e3f-4bff-84b8-bc025372fba6
p3124
aVeb274d65-9fc6-46fb-885e-3f462f969c15
p3125
aVebb1d15c-a062-43d2-8930-ea8387cd7f67
p3126
aVebc36701-09db-4419-86fc-533d941a5a60
p3127
aVebc6a8c2-c187-4ee1-85e4-4a3ce53c795e
p3128
aVebd4aaa9-cb78-4938-8d4d-fc545fb24159
p3129
aVebe3ac85-0f73-4161-81d2-87f1137daae8
p3130
aVebeee5fc-9a08-4ebe-8e06-50e9fd6b6de9
p3131
aVec007abf-2123-4258-8949-0a0d4e84151c
p3132
aVec085e1c-3baa-4fdd-843e-74d507f0d27e
p3133
aVec1c87b5-62e0-45b1-8656-676ffff19e61
p3134
aVec313ab5-c429-4f79-874f-1bb51370081d
p3135
aVec3a51a3-1ed1-46bf-8dc9-0afdbade1185
p3136
aVec4076d9-fcad-4806-8092-b2d8357b12af
p3137
aVec6e902b-d2d7-44fa-8396-0331084561c2
p3138
aVec8ee714-7729-41b1-8d9d-129364d42ef9
p3139
aVecaa0544-ada9-42cb-8377-c90b4d50bf1c
p3140
aVecdf6e21-a158-46be-870c-fcfdc7171026
p3141
aVecf5c181-a700-4b96-858c-d0d1149daf74
p3142
aVecf6a2f4-256a-42ac-8136-80684e97d83e
p3143
aVed044181-1afc-4f5a-8034-9c1cf80faf38
p3144
aVed1cf287-4621-4a65-81b7-6894f269e232
p3145
aVed248f3a-65ef-4a8d-860c-deef144bb7a2
p3146
aVed24bafc-676b-4b3e-8850-b2d6cc630655
p3147
aVed4c7188-2e77-428a-8988-00146cb107a3
p3148
aVed50c8fd-73e7-446a-84b2-51b67c9f2f97
p3149
aVed68be59-f497-4313-830e-d856ae94d3fe
p3150
aVed6a4a87-437f-4998-860c-c657b900d0f6
p3151
aVed6c70ee-0acb-491b-847f-5ab4983c421a
p3152
aVed72a616-e01d-4889-87cb-63ad8a8ae864
p3153
aVed7a7582-51e8-485c-80e7-ceb7f7dd4a35
p3154
aVed86ffcb-708c-4ee9-85d8-623fd9bb8128
p3155
aVed98c7a8-7750-4257-82ff-52b71e0860ec
p3156
aVeda61be4-a81d-4501-8d47-f4e5ec141343
p3157
aVedb2fcf9-6fb1-4ccc-8e80-dd4b0b8b66b8
p3158
aVedb83d3a-46c4-468f-8bc6-bfa251e44d25
p3159
aVedc6680f-732c-4f24-8abc-a7bea66f73ae
p3160
aVedd5d0b6-4142-407b-8f0a-60e184aad4e4
p3161
aVedfe8dd7-96ac-4ab9-8425-94863669f07a
p3162
aVee12c6a4-11bb-49eb-8164-d95b97daf023
p3163
aVee281496-1073-4615-821e-eca1bdcf548f
p3164
aVee320ca1-d947-4da6-8e68-07ab7c1b7041
p3165
aVee366719-7daf-42d7-8dc7-01b132d9fa47
p3166
aVee4ef5e3-af29-4217-8974-60520b689676
p3167
aVee56a82a-b9bc-430b-86d0-09e09a6b8b0c
p3168
aVee5f00e4-7d67-4303-88e9-9eea60fbaf42
p3169
aVee7e04c3-6a8d-415e-8d92-ca06a7f65607
p3170
aVee874623-58a5-44fc-8009-f00c09aa77e2
p3171
aVeedaffe5-d295-41a9-85c9-2f41a2c760b0
p3172
aVeee32da6-d977-48a1-85d0-ab699e81b292
p3173
aVef19aa99-ae80-4911-881d-eebdb9ce2ecd
p3174
aVef22e6d0-db98-4b89-8836-029811ba4f5d
p3175
aVef323724-7309-410b-805a-896e0cedb118
p3176
aVef5a6d9e-d6a6-4559-8cd1-3170eed16b2e
p3177
aVef68c119-a7ad-472a-8872-32306f19e628
p3178
aVef84556d-0813-430e-86c1-69f904d40595
p3179
aVef9281d1-7c9f-442e-81ab-a0c5747b2da1
p3180
aVefa508e7-6002-4e8c-85f6-3e7afa4ca761
p3181
aVefc4b798-2f70-4ff0-8e0f-6909769c400e
p3182
aVeff06244-ce26-46ab-87c7-a55e326b38f2
p3183
aVf012200a-4b3b-41c8-8a7a-27c1d3a66730
p3184
aVf0373d79-bed2-476f-854f-9ad884199f3e
p3185
aVf056cdb8-fa94-49fa-8123-b0db70306c95
p3186
aVf073d46f-4f82-41f1-87cd-a4791f961f5e
p3187
aVf075747a-0efa-4c5d-8c92-4a258cbf65b9
p3188
aVf0a8da6b-6ff9-477f-8d0e-9301562290c3
p3189
aVf0d69c86-5f32-46f6-8d61-4ff520d8c90c
p3190
aVf0df11d3-bd43-4674-86ec-87f837a339b6
p3191
aVf0f7cafb-a345-49bb-807f-5abe465835e1
p3192
aVf0f8639b-b55e-4be8-85a8-99aa2bc32a2e
p3193
aVf10e9cca-e1e6-46f5-8b6c-c2e6db2700f2
p3194
aVf1243e33-558d-4eae-8c22-14797eeca3fb
p3195
aVf12f5c35-b661-44e0-8f44-c442a11a152f
p3196
aVf134a742-4fd9-4627-8e97-e33704785ce6
p3197
aVf13f2418-1384-41c5-8b95-3c6955f76d9c
p3198
aVf14ecb34-a64a-4c10-8cf2-e94acdf70943
p3199
aVf16d2807-2f76-4c5b-804e-5985ef97e466
p3200
aVf1b46891-c760-4a26-81f8-3cd5853a5d1e
p3201
aVf1ca78db-9ba7-4fb4-81b5-074fdccb55ec
p3202
aVf205f9c5-8659-467e-803f-b306a13a59d7
p3203
aVf207943d-0ff3-4f29-8cc3-5a4ea24d3472
p3204
aVf21e6c11-26bb-4a80-868d-c84da1156c26
p3205
aVf2285755-22f7-4562-8c19-e6338ccc5e1f
p3206
aVf2354b0c-12f4-46e5-8c7a-13c38a6d32e2
p3207
aVf24d7f68-b04a-4de2-8dcf-71ac301b0322
p3208
aVf24ffabf-f1f9-4a59-8ae7-7a266d57b8a8
p3209
aVf26978ed-d592-469d-8412-eb89844916f6
p3210
aVf2b56b98-7912-4971-82cc-c800d409a44c
p3211
aVf2d17d7b-3ab1-48a9-8097-7fe986bc739c
p3212
aVf2e2084e-3bac-42db-8215-4fcf097466ba
p3213
aVf2e23a51-a7f1-408d-88d4-aeae277fd2de
p3214
aVf2e872e4-96b7-4c5a-8d5d-50dd33e8f4d0
p3215
aVf2edc987-82eb-4825-82de-f09a1aa66ad6
p3216
aVf2eebdc3-d1a5-4357-8d43-4d3cb60f7036
p3217
aVf2f1e152-e36b-4d06-82d0-c832b99f0f6b
p3218
aVf33dceb3-dc80-46f0-8a5e-4e32731ded06
p3219
aVf379647c-4ea8-4ea0-82f5-83a8253bb029
p3220
aVf3796c48-93d2-4a56-8969-dfdd94cd06ea
p3221
aVf389096c-4303-44fc-80ce-125f33127aec
p3222
aVf3baa674-2dd3-4f4a-878a-9228cbef9f56
p3223
aVf3c189f5-9dbe-428b-8bd5-9cc65f00e708
p3224
aVf3c1eab9-fce2-4cb7-8ffd-3979edaaa286
p3225
aVf3d64353-9a49-4474-8ace-573cf792762d
p3226
aVf3daf773-631e-4d1d-84d5-bbd3b1e5d6f1
p3227
aVf3fe21a8-bd3a-4d33-847b-6e544950a158
p3228
aVf41d9bf7-e46b-4576-8fa8-5798e19ecac8
p3229
aVf445b6a6-026b-43f2-85f5-b4a39754ac02
p3230
aVf45c418b-5245-4e92-8a57-403c820b6567
p3231
aVf4623d85-b42c-4881-8e66-32fc2befa7ac
p3232
aVf467be1b-d752-4955-816a-11fa0133070f
p3233
aVf470f4c2-5a0e-475c-8105-cb74734378eb
p3234
aVf476cefb-a71e-493f-8958-af8401d529dc
p3235
aVf4844c2c-3ca2-44e7-840d-03a14ee4c25f
p3236
aVf4c88ac4-7821-4c77-8776-ee54cdd20e9f
p3237
aVf4d6b7fa-13ab-49b1-8cec-d93855c90035
p3238
aVf4e23577-4915-43fd-8408-d954ff2eb584
p3239
aVf4ebfe22-3603-4b4b-87bd-c75b3c0dcd20
p3240
aVf4f3c16f-3036-4c4d-804f-c9ed19401717
p3241
aVf50fb62b-4990-4799-83a7-caacbbb88db0
p3242
aVf57ebef3-7456-49a7-826c-32238a67c472
p3243
aVf583ff20-c959-409d-8db2-8289f63251c0
p3244
aVf5859983-77e5-450f-880b-7d03104d17cf
p3245
aVf594e519-ce55-4e71-8854-81d48ce18ccc
p3246
aVf5ad1be1-8dd9-4328-8455-ce875c65b7d2
p3247
aVf5e2c4ea-01d2-4fd4-8596-3b7216cd9ada
p3248
aVf5e46051-cf2a-4444-881b-767a401a499f
p3249
aVf5eb5abe-8a88-4465-8336-71addc0519d4
p3250
aVf5fef68d-294d-4e2d-8b12-e0ff2114b8b7
p3251
aVf6119d5d-f202-40b8-8202-7b3831703834
p3252
aVf6125929-d2ed-4f6d-8f82-f41451c21a51
p3253
aVf61904a9-54df-489b-8fa2-4216829b9050
p3254
aVf629e2ad-14a8-49af-8bf8-a8f5e4c982ef
p3255
aVf649bcc3-30fb-475c-8324-3581d45ac52e
p3256
aVf673d8b5-04e3-4563-80fd-68128630bc95
p3257
aVf678b7d2-9a87-49c7-8f27-d248687a971f
p3258
aVf67c48e0-11d8-4e6f-8509-127f7b9e8b3d
p3259
aVf689c38b-d1f9-4a71-82eb-d0790c0a7efe
p3260
aVf68cb3e8-ba37-40ad-8fdf-f154362e1576
p3261
aVf6987274-afa9-4fe6-8658-23e96c0df5ab
p3262
aVf6b20c25-d0b0-4c4f-853f-e3ea58b3c5f2
p3263
aVf6b440b1-f08d-4966-834b-df8d4a995406
p3264
aVf6d4e581-fc41-4c2e-816d-f6b2bd5d22c2
p3265
aVf6eac489-f260-4d8c-8aca-eab903d0e59c
p3266
aVf7010b39-5df6-441f-8900-6d1900130fd1
p3267
aVf708009a-787e-4946-89ef-97ddde1a9eb2
p3268
aVf71dff6a-1cfe-4680-85e4-d3721f9a8208
p3269
aVf767cc6f-9196-41c4-8158-1c3f461c1580
p3270
aVf78e3608-566b-401b-8a9c-d5143b4d3885
p3271
aVf79d21f8-d32f-4307-8fbf-9bf1f09d4fcf
p3272
aVf7a2811c-d6d1-46e9-89f3-9ddc3cc913bb
p3273
aVf7c475a0-7a28-4d93-8b06-ad02cf415fba
p3274
aVf7cf3fa1-173f-4ac1-8af9-a8ba6092ee0d
p3275
aVf7f98921-7f22-44ab-8636-18b351a0f9db
p3276
aVf80c6721-a255-42cf-886a-c04b1384ee16
p3277
aVf812e650-599b-4756-89d6-d15743e49f41
p3278
aVf81d528b-d130-45c8-8f6c-e61dcd612f6d
p3279
aVf8397d77-4cc3-491d-85f8-8e9f85b509c1
p3280
aVf887ef82-f070-4d3c-8a31-26b17a1d6041
p3281
aVf891a384-4f6e-4ac1-8d1e-d8b676d15df0
p3282
aVf8a67b0a-28fb-4796-8e4e-89045f019e36
p3283
aVf8b34455-1c38-469a-803d-3599cd7123f5
p3284
aVf8ef5dfc-1d13-4781-8d3a-899ada1ab3df
p3285
aVf9044925-40dd-4c97-8f42-9e7092767913
p3286
aVf919c009-949b-47f3-8dc2-e29c9cf80713
p3287
aVf9359210-bc89-4b90-8e2d-b23700e38f90
p3288
aVf9386214-fae0-4487-8eeb-648956761f49
p3289
aVf93f8dc5-d0ae-4c33-821b-059eec4cc3fa
p3290
aVf9478896-3977-413b-85aa-1dd42b44151d
p3291
aVf94b00c7-f4e7-47e3-8a44-ba04974df3e1
p3292
aVf95d18ad-35c2-4d6f-889a-d8f71f7c9d91
p3293
aVf974b429-c863-40d6-8db4-75a34488b325
p3294
aVf9795acc-13fc-4794-887d-41df74a0c5b2
p3295
aVf97cdb5e-55ae-4f02-8bf4-3f9ebc29e4d0
p3296
aVf9818a11-05d2-419d-8a45-ef3e1eb715a0
p3297
aVf9e1f0f7-c055-476f-8212-baf9bd372617
p3298
aVf9ec8e30-04ff-44f5-8417-2e113d32f03f
p3299
aVf9ed98e4-9b62-4205-8c38-cf368b359b14
p3300
aVfa00cc48-26f0-47a3-8bd9-7ab8be305246
p3301
aVfa44c75d-3907-4550-8861-549f619dfe98
p3302
aVfa544858-e388-48a0-877b-9c0f8bde1044
p3303
aVfa55f5f0-e05d-434c-8804-c238c97f0191
p3304
aVfa579ef7-610a-4d86-8d5e-eb2c003efdb7
p3305
aVfa58431e-f379-4096-8fe5-9309d31b8a60
p3306
aVfa62eca1-afea-4391-8044-305ebf14a59a
p3307
aVfa66a077-8bd3-4b97-8abe-d51e5f83cb78
p3308
aVfa6b556f-2558-48b2-856f-32547f9c0a5d
p3309
aVfa7b575c-54b7-4bc1-82da-dc33f333fa7e
p3310
aVfaaabdb9-9bf7-4204-8080-64b2a6d082e7
p3311
aVfacbeb8f-1b1c-4d3b-8237-677bc812f2df
p3312
aVfacdbaf9-caaa-4794-8040-644f51bd2736
p3313
aVfad96f80-ba35-4f2d-8276-ed4a33386b49
p3314
aVfaf29be9-270f-4638-80a5-839d88f737bd
p3315
aVfaf72659-7042-4f0c-853e-794c3522d6e1
p3316
aVfb187d52-4912-407b-8ba3-e2c8ee665a11
p3317
aVfb2bb521-9e90-4e53-820a-c7ae32c9abaa
p3318
aVfb31d47c-8619-4f69-8525-4c4c3a4417e1
p3319
aVfb37c7fb-9920-4c2f-8979-80c8f91d2f57
p3320
aVfb39ac58-c0f6-446a-8f7a-7ea3d6040bab
p3321
aVfb431fb4-85ca-48c3-8415-26421dad09ae
p3322
aVfb4fa365-2628-4bcc-8acb-fcafc90d9ed0
p3323
aVfb57129c-68aa-4182-8079-722daed3abf5
p3324
aVfb5b509f-a32e-4ce3-86ca-03624b730de5
p3325
aVfb6cb31a-bdee-44c0-8149-d652191b7d45
p3326
aVfb96b403-2ed5-4796-847c-dd37b6c026f2
p3327
aVfb99ab46-df0b-4276-88fc-e22e1af03cd1
p3328
aVfb9bdb3a-4e65-47f4-8cb6-557c761971b9
p3329
aVfba0c819-8139-4459-8e8e-bf41cf332552
p3330
aVfbcbbb49-37cf-4f87-89ec-6b76263fa80b
p3331
aVfc0c8702-b60f-45b1-84f6-6f11326bb1c2
p3332
aVfc3f0279-4104-400d-804e-25ae0200f43f
p3333
aVfc41b758-f000-4d1f-8c34-1f4e5b131899
p3334
aVfc62ab43-22bd-4a5d-8633-95fa2b7d0e61
p3335
aVfcdd7126-144a-43a3-837a-aa55e378fe0f
p3336
aVfce0b4e1-cd13-4457-8be6-9ae7105ed9d8
p3337
aVfce1590a-3807-4193-8d31-3a9eb39dea92
p3338
aVfced5fc2-d5a0-48fd-8d8a-54137eceb693
p3339
aVfd003a6c-5987-40bb-8b10-1c8834e8b6df
p3340
aVfd117234-8c41-45a7-8a88-a7e45e706355
p3341
aVfd334dde-d2ab-455e-850a-5a8473711eb9
p3342
aVfd39f91e-a228-419d-8e4c-8651099c7c47
p3343
aVfd46f566-78da-4808-8b4c-cbb3c3cdef5a
p3344
aVfd526a0b-4145-41eb-82b2-a98d0da0808b
p3345
aVfd6f3180-be12-425e-8027-13473fd4c725
p3346
aVfd807546-7a96-4f04-8930-3f7236b4edcd
p3347
aVfda71bf9-d9ae-4b42-89e5-6d597129f4c3
p3348
aVfdae8027-eead-4311-878d-716a674b48a1
p3349
aVfdbc916d-3fdf-45f1-81a2-62c18ae0ece1
p3350
aVfdc0e9a1-26c6-4145-86e0-849c99c4f4ab
p3351
aVfdc250e5-1349-40b6-825c-ee45a8f9b021
p3352
aVfdcf7c68-4d7f-4577-818a-78d65e31f76d
p3353
aVfdd79ac5-4173-42c8-8820-f31ab50f2c02
p3354
aVfde8319c-be60-4b5e-8086-6f7ada3eb9ad
p3355
aVfde92f24-8810-4112-8a2e-e4cc3e2f91ff
p3356
aVfdf9c84f-8884-42a5-8b5e-13fbea6ef726
p3357
aVfe0e0693-3223-45db-8e7a-8a4dd21f88ea
p3358
aVfe36e546-1482-423e-841c-e0e27e19dd6a
p3359
aVfe4c98ae-5b1a-4a20-814b-545dcbd41c29
p3360
aVfe5c6551-a740-40da-84c1-8a2d984ff374
p3361
aVfe62c670-1273-4986-86f9-0a842e015a2a
p3362
aVfe6a0e6d-c41e-4106-89de-c5868991cafe
p3363
aVfe86b189-f29e-4ac7-8fd9-498a0b4654d2
p3364
aVfe8bab82-89a6-4694-82cc-13fd9b6cb513
p3365
aVfe8dda8b-20ed-4e42-8b70-197cf9bda717
p3366
aVfea4dbfb-e3ca-4145-8895-161d14e2fcab
p3367
aVfebead8b-9961-49e8-83d2-fafab4e27819
p3368
aVfec08557-fa6a-4fe7-8cf5-e5b6da062cb5
p3369
aVfecb7f75-8bf5-4fcb-859f-53b14ae81c59
p3370
aVfecfd8d5-1a8a-4f62-8765-935d6b1a146e
p3371
aVfee7b914-9c6d-499c-8fbc-5da6ef6daf61
p3372
aVfefa87de-56d8-4722-80a0-04c75a2f5a15
p3373
aVff0ea4cb-aec0-4261-84b2-932d81b03f19
p3374
aVff33f4ca-2abe-4936-875e-b6e82d151d11
p3375
aVff3d2b3f-1c27-4aba-8683-6dfe66af5245
p3376
aVff40bf09-eb6e-4e5d-86b1-ab12c8b13a88
p3377
aVff6db5c5-1508-494b-8b0a-79d9ec3fcd2c
p3378
aVff7c6534-b907-4006-854a-639b22cbdb7d
p3379
aVffb54b52-48d0-4311-80f0-274ebade23dd
p3380
aVffb749d3-fb99-4b64-870b-22b00c424792
p3381
aVffbc1cee-437b-40f7-8696-078dab1ac0d3
p3382
aVffd02f84-1b13-479f-83a9-35f6d17296c7
p3383
aV006a5cf9-32ae-4ae3-8db1-02ce0712e938
p3384
aV007caeeb-1ec4-48d8-87aa-163db901af1a
p3385
aV0132e005-f2b2-48ca-87aa-3f9641e00485
p3386
aV0149abf1-6e40-4800-89f1-3bd8e33f87c9
p3387
aV019fc24e-7fe4-401c-8070-31cc7ee9a963
p3388
aV01a0b32c-292b-47c4-8de7-8aaf11135fd1
p3389
aV01a95e0b-31e3-4c97-87c9-cbbc7357d29c
p3390
aV02abb2ba-d97e-4504-8430-1bede69dffcb
p3391
aV03411a68-ee2b-4c64-8905-189038747118
p3392
aV037b6087-6ebf-4f85-829a-4aa831f28255
p3393
aV03a34430-8868-4ece-8097-41b7cd054dd2
p3394
aV04efe514-4ce7-49e1-88e0-0e3201f04549
p3395
aV05ab900d-0925-4d48-8dd9-1414eda25b16
p3396
aV05b84e1a-6b8b-440d-887c-6c327d9af40d
p3397
aV061c599b-ac84-4c25-8b6d-112c316e180a
p3398
aV06217772-6ba5-4847-8f46-0cb9ad9ff90e
p3399
aV062480af-2e32-4f89-8d61-55160b8e3625
p3400
aV062b3782-ff24-4670-8391-77b9dd7c2d08
p3401
aV06675c31-921a-43be-8999-de067f7fe9d9
p3402
aV068faa92-e73f-475a-8f27-13c83dee8060
p3403
aV0694ff8d-d0f7-4446-8270-7bffbd866d40
p3404
aV0717e93f-3240-42ab-860b-7f343931f86c
p3405
aV07af0f29-ef75-4f2b-8db8-357a3289a33b
p3406
aV07e78ed3-1c15-4e44-89e0-e11a9930bcfd
p3407
aV0805784f-18ba-4fa4-8b1b-e547165ac1cb
p3408
aV08e82fe1-6537-4146-8167-13c7d7d4991c
p3409
aV0978e11f-cc92-4174-86c2-6b15265049ac
p3410
aV09db50a1-ecdc-4718-8072-a05b410d480e
p3411
aV09faaeb0-f88e-43a5-8a20-4a6109c263cd
p3412
aV0a080bad-f4e8-4667-8b95-0dff51571d6b
p3413
aV0a3d6840-134f-4329-8958-de64d7695274
p3414
aV0ab58093-9023-4583-852e-5e01bd076001
p3415
aV0b23a9e0-59dc-4b1d-8c65-46ddc330f005
p3416
aV0bf03ac6-c14b-44f7-8e11-c36150cb4780
p3417
aV0c055992-adea-4394-8c8a-e7dfa8447928
p3418
aV0c245021-56c0-4cf2-8295-afd8b097b1c5
p3419
aV0c62df88-dde6-4c5a-81be-77bb90ca4032
p3420
aV0c9f1f0f-9608-47eb-8e0c-477d0bb741bd
p3421
aV0cc5ed8d-d8d1-412a-8131-74b4d1d86815
p3422
aV0ce20e06-346d-4b7d-8b95-707f67588a28
p3423
aV0d16b51b-333b-4e17-84ae-3ccdd83eafca
p3424
aV0da3077f-2c7c-4026-8851-8532c08849b3
p3425
aV0db02633-b91f-4216-82ed-f2844f163015
p3426
aV0dbe6a7d-a2ac-40c6-833b-a8dead4d9370
p3427
aV0dd56740-1f44-432b-8b65-097702e71d14
p3428
aV0ea69aec-4f68-4b4c-8db6-0322148149c8
p3429
aV0f7b8002-11f5-4169-8186-f4d0c92f0cc0
p3430
aV0fa3ef48-4e43-46e4-8d26-7fc9793feb0e
p3431
aV0faf7ef6-6fca-4d69-8856-296ec8aa8603
p3432
aV0fd58e88-6433-4883-8bd5-cdde695c711a
p3433
aV10d6ed69-622c-4a7b-8443-2547bd489a65
p3434
aV10f9181f-b621-411a-8dc2-24d2768b4093
p3435
aV11654cb9-2d45-475c-84e0-998d66f5c9d3
p3436
aV11952105-8497-4c12-8d38-d300d7c433a8
p3437
aV120a0b9c-5253-43f0-870c-7e3a3bd9f350
p3438
aV1283bbf8-4abd-435b-856e-497858178ba6
p3439
aV12e36b4a-5890-4496-82ec-cd3dc6079c38
p3440
aV12f511e8-4023-409e-8dcf-3409bd90fdf0
p3441
aV1329da4f-2765-46c9-8003-f6e01dec1684
p3442
aV141289cf-5b85-46bf-8a61-e621e52fc33e
p3443
aV1503df16-a5ad-4b56-8032-d3062a05dc0a
p3444
aV153b687f-e9a3-47ac-8f10-ce4f5555f5eb
p3445
aV15b39836-7a5d-475d-8f2e-ea089078055b
p3446
aV15d7ea98-7b29-4139-8055-c63a4b81dd20
p3447
aV1629a1c2-e6ed-4650-8c58-38266c6a6c0c
p3448
aV162ae296-cd32-4375-805c-c48b21796cb0
p3449
aV171411c4-7a83-4e56-8e85-ac55455ec707
p3450
aV17596218-ef69-48a3-86f4-9893416dc4b2
p3451
aV17bc85b9-067e-44bf-8b2c-15b9e217978d
p3452
aV17d57548-0e39-4628-8f9b-1d77dc0ba23e
p3453
aV17ecd44e-368b-49a4-8b94-ff6ce93b167c
p3454
aV184d6587-c2d4-4e55-8ba5-853db179ee37
p3455
aV1877f0db-2573-4737-8f26-983039aa302f
p3456
aV187a770c-b027-47de-80d3-56a42394c1a8
p3457
aV18d1ff27-5d8a-4eb4-867c-1fa317c879ec
p3458
aV19ea60f3-c9b2-46d3-82e2-eb0db066951d
p3459
aV1b971b10-f62e-458b-8053-ab82ab2ab31d
p3460
aV1bea566d-ad51-4a32-86e6-bea9f3867688
p3461
aV1bea9e40-28ec-4b6d-8872-fadffadc5ebc
p3462
aV1c14f8cd-73c8-4a53-85fa-09c1bb93d8fd
p3463
aV1ccc5011-d9ec-49d7-8ead-3f6fe597a40f
p3464
aV1cd91cb6-9cac-46e0-80da-d418cbece598
p3465
aV1d9d6af4-d3d1-477a-8910-99f883a4228e
p3466
aV1e9a395e-9359-4c8a-854f-5f074f4089fc
p3467
aV1e9f5dfc-10fc-4389-888b-fe72200ac3a9
p3468
aV1edd0edf-7d0d-4486-8518-cbf3cb807a2f
p3469
aV1f47147d-da5a-461d-8fb2-04c99d567a59
p3470
aV1f5cb166-470b-48ac-8fe0-20678b68cb5c
p3471
aV202930d4-736c-4cdd-8170-a83d670e9824
p3472
aV208a75e2-2276-45e2-87ca-10a6b129924f
p3473
aV20f62914-c06f-4c6a-86bd-326d10584541
p3474
aV21589ad6-5cae-469f-8392-3ef7bf615d7e
p3475
aV2218359d-4083-49c6-825a-e2f350d50693
p3476
aV2270e3a4-447c-45f6-8e63-aea9fe94948f
p3477
aV228bd3fa-71b5-457d-8b70-da8213d614de
p3478
aV22ef778b-1a66-47dc-8687-57d02127ab13
p3479
aV23ad2e60-d462-41b5-8d53-f4c6c9959889
p3480
aV241744a8-7b29-4cf4-8a3b-aa90298bbd47
p3481
aV24481668-f125-4332-8358-0d7f501e2c8d
p3482
aV246cc02a-e241-42d2-84eb-86629bfce8ed
p3483
aV2519a522-3613-4ac2-82f5-002964cb0cff
p3484
aV25f57f10-e2c5-4841-8d57-dcdc13c6ee05
p3485
aV26296cd2-4732-437e-8e1e-8b36c74a1c72
p3486
aV2630c677-fada-460f-85e4-8b1e21952635
p3487
aV26395002-50cc-4110-8aa8-fa45d843e251
p3488
aV27440a39-530c-4f0b-840e-7cae14b5ee7b
p3489
aV27c82c4c-330f-42a2-8842-97afb4859de5
p3490
aV283f75b8-328b-41b7-8543-e7efd0aa7c98
p3491
aV286afc61-f4e7-4205-8b7a-77faff461465
p3492
aV295257bf-17d4-4af1-8685-443a74035f96
p3493
aV296c464f-6854-433d-8a1e-5afcf4038ae3
p3494
aV2982ea4a-a4e6-4931-8087-1478a492b6c4
p3495
aV29ec7883-dc3c-4aa0-8f3f-6ce318e11da3
p3496
aV2a68d0b9-8839-4dbd-8ac7-6dc6f3c93a3e
p3497
aV2ad6ceb3-bf2c-4b5c-8923-07269bdb45f2
p3498
aV2ae3e0d4-8c0e-41b8-8845-9d47c645b3fe
p3499
aV2b0a5360-c45f-4d45-8d3d-b4155c2e59e8
p3500
aV2b4a7266-5330-45f0-826e-90c6df09a0a0
p3501
aV2b8d7915-e4e6-4efa-8305-88ae128871fe
p3502
aV2c2797b6-647d-4626-8e87-47060097a8eb
p3503
aV2c828eef-356e-41b0-8af6-6f3840b4c0e7
p3504
aV2d51374b-c1fe-47bb-8ea4-68727f5c4734
p3505
aV2d68e013-4418-4277-87d7-0356825fe91f
p3506
aV2de18a3b-c4ce-45f4-8aa4-6ab429937b5a
p3507
aV2e5ae895-e17a-4258-8c69-434dfc44e084
p3508
aV2f62e7bf-7fc4-4e7b-88c0-c730981f1729
p3509
aV2f7d2aa1-e48f-46e4-8612-3bde882f8578
p3510
aV3014dc8a-6e38-49af-8a95-3629337863c6
p3511
aV306ad83e-7143-4dac-89b0-2e8870c8d95a
p3512
aV3111aa75-692f-4504-87ef-a72c6f79097e
p3513
aV3162de56-0951-44e4-83e1-1c4f181de534
p3514
aV31e5b66b-f56c-4240-884a-ecb77dc0a427
p3515
aV323df57a-579e-4912-8cb2-bec1bc81db8d
p3516
aV3251987d-c17b-4e85-8306-9471cd0090d8
p3517
aV32dc1cb7-8241-464f-8fb0-dfb506781362
p3518
aV339efb80-9226-4f03-81d0-e05dbd024d7d
p3519
aV33cb28a1-582e-4e19-8165-290e59a5c5e6
p3520
aV340dde44-135f-4eb5-8db1-c31eb810a002
p3521
aV34b46301-9789-48ae-885f-128fb6c61363
p3522
aV34c0c089-cc12-4a95-8772-d0c127395b43
p3523
aV351c2b27-8377-40a2-8e03-8a40c07fdcc9
p3524
aV3520c21e-1ba5-4f60-895b-1b399e6a06a4
p3525
aV353a68d5-1df1-4437-8488-52ce6a08c1a8
p3526
aV355bd903-7d9a-4382-87bf-2ac3e2f88432
p3527
aV35681325-4fbb-4f58-8a9c-098c8589f82f
p3528
aV3569441a-8c2e-4018-8934-312b8f06b38a
p3529
aV360de349-6cfa-41b5-8f30-067acb2e50ec
p3530
aV3618a175-4511-448c-80a9-99164f1337bf
p3531
aV3633d041-ddb6-4ef7-8a29-6b32f4aa1361
p3532
aV364609d9-c2ab-42ef-801c-4c5de5309c19
p3533
aV36b4ae52-e449-4d34-8834-e1ce1802a54e
p3534
aV36c8bbcf-2b10-427f-82fb-4e0462e81051
p3535
aV373f153c-de54-4e20-800a-57cee38f9c1d
p3536
aV374dffea-3bb3-4007-8c0d-85a6088808cb
p3537
aV37c4187d-7de3-4a3e-81cb-bbf412b31e63
p3538
aV37cb22be-5c43-4cdd-804b-a373d555c7bc
p3539
aV38380bd9-9966-48de-89fb-9bfdca8b252b
p3540
aV38a22d7f-abd7-43e8-84e4-2a40e36c9672
p3541
aV3923655d-8bab-42cc-8b1f-fef879b4b409
p3542
aV39efd630-1c98-44f1-85c0-57a2ef3b429e
p3543
aV39fcbdd3-753f-4fca-8124-42a701e0072e
p3544
aV3a233841-4efe-46eb-8c48-d640746c0d2d
p3545
aV3a73d922-6119-4310-871a-8f1d533dab0d
p3546
aV3a7444d0-3a0c-46c1-8290-4fc6251b6461
p3547
aV3a93bdb1-2550-4366-8692-8ba9906f041c
p3548
aV3afa8103-f844-4525-8a34-adacc2e2ecfb
p3549
aV3b205a7e-57c4-49ee-869a-f242c0afbc43
p3550
aV3b4ff00f-f36a-41f4-8028-af848a522372
p3551
aV3bdec948-e7d1-4cd1-8da8-dbcedc9d247f
p3552
aV3beee2a6-055b-41b7-8c39-df1db15484fc
p3553
aV3c698a68-b837-4336-8b63-f113e7b308ce
p3554
aV3c6c8859-c3b8-427d-809f-2ea005811304
p3555
aV3c7f4db9-b915-4d58-8cda-fd8738aef9cb
p3556
aV3caba6c5-c28d-47a2-8ea7-ee57534c79b9
p3557
aV3d804c31-f743-49f5-8b82-00b2d67bf86c
p3558
aV3db26787-0ff8-4a24-87ac-4b85c5e16d60
p3559
aV3ed2828b-4c9a-430a-8d15-d32602ce8f24
p3560
aV3eeed3c2-721c-4dcc-8536-d0cd9624ec4f
p3561
aV3f6d1dc6-b9fc-478e-8d11-fcc507916fda
p3562
aV3f9ddb33-626b-4f50-8369-58215c17e034
p3563
aV3f9f1e42-c668-407c-8adf-b63d251cbbc2
p3564
aV3fcb34dc-2c80-4602-8a37-23f9a5ec3d55
p3565
aV3fdc39d9-cd98-4fe7-8067-17cc99bcb183
p3566
aV40990ea3-60d1-4959-8a11-13e244827dd8
p3567
aV41a21018-803a-4a30-87f8-2f47739d683f
p3568
aV41e1704a-2bcf-442e-8b7f-4583b8326747
p3569
aV421e78c4-7515-4353-84a0-e1be727755c9
p3570
aV42372491-dd7a-4b09-8be2-d3b029ce4ece
p3571
aV4342f895-c93f-47df-89d6-7d4d63ea7056
p3572
aV43ab5d5d-1243-496b-853c-0aa06cf8399f
p3573
aV4462f2d1-fe36-486d-82ed-24cead22dc07
p3574
aV447ab80a-0be2-47d8-84aa-02ee756beb0f
p3575
aV47a6a16b-e0f2-4b23-81ce-bbc3ab64c42b
p3576
aV48c47b9e-e004-4a54-86db-7524095b5690
p3577
aV492f87b2-16c0-4c56-8c04-16d7864bb730
p3578
aV4981ad79-9cf8-4c65-89cd-630d5044a88d
p3579
aV4a17c8e6-5e13-4791-8758-83a56755a03a
p3580
aV4b6a3d70-ed10-4e00-879c-83da485e0371
p3581
aV4c6f9c55-629c-454f-8d21-4b7d3a17c923
p3582
aV4d2268b8-5031-4884-8238-de08d8e84363
p3583
aV4d7bcf52-3490-4531-88f1-efba5c5dcbb2
p3584
aV4d8f1be2-bd18-43ca-86a4-edec6b3f1f93
p3585
aV4d9e1864-8e1a-4b23-8cd7-ca337846e4bb
p3586
aV4dad48d5-4aa3-430f-84c6-f15426597d42
p3587
aV4e22991b-da2f-451e-8bce-cec627d57102
p3588
aV4e2f9436-f472-426a-8bbe-3f1a2ea5579f
p3589
aV5094c595-f04e-4c3a-8f6c-d8ef36341dcf
p3590
aV5131a8c6-1d5b-4582-8e5e-94bfaebd1fad
p3591
aV51635414-7756-4c9a-83e3-781b66b0a48a
p3592
aV51d3818e-d8aa-44fe-8b0e-4a3dac4490aa
p3593
aV5220b659-3a81-49c2-8368-9161a631aa3d
p3594
aV53277bf1-5804-40f4-82a2-ee8bc9547da3
p3595
aV550aba9e-bc0b-4a18-87a4-820c6e23dbbd
p3596
aV5574e1a6-cbb2-4531-84c1-c1cd75ce10da
p3597
aV55a3aa81-9343-4b8c-837a-d974ae955507
p3598
aV563055e3-9f38-4127-80af-311fd1d0b567
p3599
aV5636a536-c865-4679-8500-686f42bbc11a
p3600
aV565d925f-f956-4d21-8386-90675343d303
p3601
aV568258a4-3b2e-4047-832a-97c059b8e4d4
p3602
aV5863a81d-3754-4043-80cd-b18e33b1af7a
p3603
aV591ef26a-be4d-4b92-82f7-c1feb1ccd64b
p3604
aV598f578b-e057-45c1-821d-016c479531b1
p3605
aV59ae43db-2182-4198-823c-cee5af945af4
p3606
aV5a0df591-72ca-4ad2-8e29-bda54f248b57
p3607
aV5ad5009f-52ec-47b0-86ab-077b0a236854
p3608
aV5ad8409d-03b6-41dd-8ecb-a8d91a06f38d
p3609
aV5b42b5b2-4d33-4593-869d-3c23dc447f2d
p3610
aV5c67b1aa-c306-4908-8c0d-ee2e91c0719e
p3611
aV5c84f722-1709-4010-81b9-2b824be41174
p3612
aV5d071f43-f895-48c4-8f14-0b77b0e18137
p3613
aV5d5e3d7f-b908-44fa-874e-c044d84e7917
p3614
aV5df726d2-d368-477a-8b5f-3686406e4b01
p3615
aV5f7e1d9b-d7cb-492f-8c38-8fc421df2560
p3616
aV5fb5252e-a038-4b5d-8f7d-da3dd5e873ed
p3617
aV5fd9c501-af0d-4be2-8e65-012253139a5d
p3618
aV5fe01449-012e-445e-8907-9339058b38fe
p3619
aV609f2fce-88e1-46ec-8864-8fef1230f20c
p3620
aV6289da3b-beb2-4e84-8d90-35d3fbfb897b
p3621
aV639a23a1-22a2-4830-87be-d5a4d641657b
p3622
aV63b66893-50e4-4cad-8fd3-18bf3f4bc541
p3623
aV64654299-3038-4f5b-8153-d7bc2fa39a2f
p3624
aV649a4c48-d64d-4f66-8201-f4818da11788
p3625
aV65929969-421e-4d6f-8c27-5f3a16ed2ea0
p3626
aV66015377-88be-47de-847c-6ddaca460c63
p3627
aV660ecd41-05cf-4ddb-8326-9f3532702d49
p3628
aV66def988-48ca-4cc5-8e0b-19d9b73f6266
p3629
aV67630740-3dde-4666-8189-1adbf469507c
p3630
aV67967ae1-3925-40af-8adb-641bef10aa97
p3631
aV68524168-41e9-4c33-8d4d-1cef992dc41f
p3632
aV68e1a3c4-2ef8-4f82-8864-5fc313e9530f
p3633
aV69400a40-3c5c-4a33-8f7f-83cc62994a99
p3634
aV6984a958-70d9-436c-8a70-85c779b6408a
p3635
aV6995d5c7-2897-4c54-841f-7da3c7a6a37e
p3636
aV6a4b74af-9ec9-436b-8b2e-dd3e3c97a8ce
p3637
aV6a583d0e-3315-4f79-808a-462a210febd2
p3638
aV6a616f65-6a23-4eef-8875-82b0d71eb24b
p3639
aV6ae6631b-cd44-4c09-8f9e-88aaee9739ea
p3640
aV6b58519b-c20a-4ed8-8922-3a6eb6740f2c
p3641
aV6b6278f4-99f6-4e91-8c17-99cb33b55af2
p3642
aV6b7011ce-1264-490f-87e1-72f758344699
p3643
aV6bbe2840-38ec-446c-875a-a4ae30cfc006
p3644
aV6cc5021d-43c7-4df3-8ece-b0b4a80f773a
p3645
aV6ccac171-a925-407f-8ff4-f39dda2830fa
p3646
aV6cf014bb-1716-4e8d-871f-7e69aa1b235e
p3647
aV6d4d14b6-c100-4921-8dfc-be3ac355c2d3
p3648
aV6e1d10ea-b150-47d6-8c1d-a68495ad18c0
p3649
aV6e3d524e-e282-43d3-8d9a-e1a93019bc7d
p3650
aV6e64f1d7-3ec8-4566-85c4-df89dfbb879a
p3651
aV6e88d12c-b42d-4bad-8141-b799d499c40d
p3652
aV6f980ba2-2ab8-43ba-8b3a-35fe6d1161de
p3653
aV6fff40eb-b64c-4f7f-8556-97975330747e
p3654
aV70d7bfd2-a348-460f-8401-084e39e12835
p3655
aV71a3b021-9832-4a16-886c-e348f8b1226e
p3656
aV71bb545c-d4d3-4707-8574-22f57f153243
p3657
aV725559b1-0a42-45dd-8a40-b070a87a1786
p3658
aV72c1a699-2c7f-42df-8f43-627f5cac187d
p3659
aV72e03581-4e47-4a12-8246-7ac051422a0e
p3660
aV73c42ea8-5784-4e4a-80ce-acd8691dfb5d
p3661
aV741133f4-3ac5-4fe7-8387-8421de3cb882
p3662
aV7459609a-4bbd-48fe-8a87-7caaa47b2c62
p3663
aV749a8995-5d2a-4cc1-8a11-c94bdc4d225e
p3664
aV74adcac8-d2c9-4d75-8edc-e1f59ec8153c
p3665
aV75318c42-e1dd-48d8-8e2e-8b75e036274b
p3666
aV75ce3c47-adae-4ba6-8822-1a1f72df70cc
p3667
aV75e327d4-c007-49aa-8696-0160f8b48b45
p3668
aV76452586-c072-4567-805a-ed7e3687ed98
p3669
aV768a1f33-7bdb-462b-85e3-c2145c8cab06
p3670
aV775500e6-c3ac-4112-8287-467a1783800f
p3671
aV78b029f3-7af6-4f6d-8a6b-6e059e0c90a9
p3672
aV7994e97d-2d8a-4126-846c-785a2ebd8ffb
p3673
aV7a209668-67bd-4d49-833a-68c16da8052f
p3674
aV7a9f159b-3032-46ea-8efc-af119dad8987
p3675
aV7aaf0b7d-7dc6-4682-8421-9ce3c5828114
p3676
aV7b3bfadc-e4f0-4dee-817d-d8f98aafd6ca
p3677
aV7b705f07-3d6c-4a83-8984-304c351ad011
p3678
aV7beb808e-6bef-4648-8109-c1bc8288d1d7
p3679
aV7c4a6740-8e68-475c-8977-8178132cdc9d
p3680
aV7c7b3ccc-3483-457d-8d38-d03aab67ab22
p3681
aV7cf2cd1e-f469-4fc6-8a29-1a91b0407c97
p3682
aV7cf4f7a0-0965-4508-8d95-368d3adb10f3
p3683
aV7da17c47-3783-4f93-8020-d00dc6db3df7
p3684
aV7e287e88-aa1c-4e55-84ad-6e804efcb1a0
p3685
aV7ea70db2-69e1-4267-82bf-2b0bfae71246
p3686
aV7ededf98-8026-43f2-8de1-81ff766e3b29
p3687
aV7f3caa63-f52f-4d5a-82cc-f9b49ab59982
p3688
aV7f687145-0d87-4a30-8b2d-5b0db3b9959b
p3689
aV7fa6c430-b23f-484a-8554-a9283d03a24c
p3690
aV8002e312-74f9-429c-8a4e-08a21b9cd37c
p3691
aV8009d729-2411-4a18-8078-a1d0c39e47e7
p3692
aV80295a64-77b1-4afa-838f-1ae829f6a18e
p3693
aV8073cee1-6520-4294-8572-7c280682acc9
p3694
aV8080f431-8798-4e94-86f1-d5044d6aa92a
p3695
aV819b747e-b581-492b-8a18-4fb4fe9f94b2
p3696
aV81f6c8e6-ffee-4c20-8cbf-c06dc2b233e6
p3697
aV824f4b39-9148-4dd3-8194-b25974f34528
p3698
aV833b25ae-333c-4944-8268-af3f4c89c440
p3699
aV83c25fad-b8f3-4919-81ad-9aeac0ea9a6e
p3700
aV84fc1d3e-6b3a-4d10-87e0-d5f6b7a77c8f
p3701
aV85bb42a5-c5ae-4bee-8527-84d27424a4f6
p3702
aV869eddbf-5c9a-4ed0-8ec2-e4e5eed2e819
p3703
aV8720e07f-085f-47cb-8cb9-5d828afcfe03
p3704
aV875823d9-9317-437a-8cd7-7559dac57d58
p3705
aV87629dd8-4156-414a-83fc-14ede7e0daf9
p3706
aV888c8b94-382e-4292-8c8a-5aef0f3084f1
p3707
aV8988880a-2f51-4f96-875b-f918ae2d08a4
p3708
aV89b02a8f-0042-45f5-8bb4-9a850f7aa2fa
p3709
aV89d7d6aa-b1f8-490f-8647-c93d2a15f321
p3710
aV8b471863-2e41-4c5f-831d-b0fee0fd7a9c
p3711
aV8b6481d3-fee6-469e-84b1-6f99c6bf8069
p3712
aV8c496199-e6f3-4d6e-8453-8b0d6b1c3a60
p3713
aV8c81f820-3116-46ed-8286-4d10f028c92b
p3714
aV8c8a850a-e59f-4e66-82c4-ec672c622a86
p3715
aV8cc16df5-52b9-401a-86c6-22d54f2ee3cc
p3716
aV8d11c68b-46a8-4595-8543-7713ddcf1209
p3717
aV8d3992a5-ec85-45ce-8c19-2b88912e007d
p3718
aV8d8fce2b-4187-4b4f-88a2-6842f5ffe4c0
p3719
aV8db2059d-11aa-40d2-8687-74fc583e4008
p3720
aV8e295947-9922-4726-8b38-164970ba3d2d
p3721
aV8e816e09-dec3-4319-83f2-668652340ca1
p3722
aV8e9ea18a-9d92-4c60-8478-456d5c7803f6
p3723
aV8ebc543d-d129-4746-8973-4e03ee619b3c
p3724
aV8f72b0b2-9f8d-4f98-824f-47abc290f330
p3725
aV8f7c7b36-40db-40e1-84d0-0528bd665f79
p3726
aV90061730-32e0-4955-821f-ffc9fbe2b9e0
p3727
aV909bd89d-6e92-419a-8502-45846180278d
p3728
aV921de031-1644-4c68-80a0-babd883fc6db
p3729
aV9225b5b4-de99-400b-8b88-7816599a0e47
p3730
aV922616ad-87c2-4497-8d73-293054bc448f
p3731
aV922695b6-5cc5-43d9-8489-2567122cdc8f
p3732
aV929d7b40-34b2-4f3e-84c2-8db5d69a69dc
p3733
aV93db98cd-1d57-4e6b-8c04-fb700dd8a953
p3734
aV943fba56-5f03-4538-8a32-4de8178a4b0c
p3735
aV94b950de-3baa-410a-8192-28afff854458
p3736
aV94c5f62e-793a-4d48-8146-e52ecdea0c7c
p3737
aV94ed1666-ab94-4c08-8b06-71c27d3ac678
p3738
aV94f4c959-03c8-4406-8350-1f8598c81440
p3739
aV94fd5c7b-e6e0-4dfc-887b-03a91cd5c1ac
p3740
aV9502be38-4cdf-4f52-8321-3845c8edd8c7
p3741
aV9680cdcd-a8cf-4cb2-8367-c14568cb6a9b
p3742
aV971a0394-e591-4d04-8975-b52362fcaaf7
p3743
aV976ac4a9-f0b9-44bd-8d2f-6307a0c18f38
p3744
aV978baded-e944-4b48-8234-4f2f2c47d911
p3745
aV9945f62c-babb-42be-88e4-54cf384967e9
p3746
aV99e6bc77-129e-4510-806f-132b07258f44
p3747
aV99f78f45-c7fb-4b18-8f81-421bd9880a43
p3748
aV9ae9093d-7d57-4453-8542-ea83e9f9bfdc
p3749
aV9b3a3e07-42b3-4136-81a1-e440eb16512e
p3750
aV9c28fe5d-1066-4cb6-834c-e60253ad7389
p3751
aV9c44e194-cc70-4b18-829e-5f31c5a51b6c
p3752
aV9c830ea9-57c0-4e98-8750-3ef2fb1ee8ee
p3753
aV9d1ebbf7-91fd-4891-87c3-2075cd4316cb
p3754
aV9d3afc9a-1568-4f81-8e67-efc5d8ee22d0
p3755
aV9da64d34-83a1-41f0-8f3d-0629c6743618
p3756
aV9e1b49b9-a0fc-4eb0-8b5a-b3e4f178476d
p3757
aV9e1b6a98-341f-4b77-8d44-6f744f32d928
p3758
aV9e459d22-28f8-4c2f-8301-51d466408f3e
p3759
aV9ea16cbe-b28a-453b-8576-73bb96e5f0c7
p3760
aV9f1cfa45-5359-4175-81e2-0fdc041f0a94
p3761
aV9f52d6bd-edb9-4cc0-83db-d03d6bd02e36
p3762
aV9fb505d8-e18c-465e-8571-45b4c66488a8
p3763
aVa12fb076-2ac9-4bcd-8070-ca866b22dc6f
p3764
aVa14a6e63-8d29-4112-8f16-41ee0bc2cd61
p3765
aVa1db9c74-fdd9-47fb-8eba-a4f185c46b4c
p3766
aVa29bd565-e7d8-4191-8a4f-1fb992744c19
p3767
aVa2d17c85-9cea-4757-8a65-1d5c22b025e3
p3768
aVa2f71d69-af45-4fa5-8c4f-a2075d6e8097
p3769
aVa35a5d38-d568-435c-889b-bd195e6a44bd
p3770
aVa36ac5a7-0b9d-43aa-8270-8aa1e3fdf313
p3771
aVa42531f1-268d-4d7e-8167-4048a20ebd25
p3772
aVa48c51c2-b304-4d79-81a3-b0fcbe42eb01
p3773
aVa524b568-e871-45e7-89ea-e8b1003a4187
p3774
aVa55b509f-690b-4081-80fd-2e8ed951b1d0
p3775
aVa58765e5-38d9-4dbe-8221-08bb071da942
p3776
aVa6da8321-3a29-4eb5-83d0-b02f5f539215
p3777
aVa775dad5-3709-4d65-8e68-1b8b5586eaa0
p3778
aVa78751f4-3e1a-4fde-8f03-47187c332b8f
p3779
aVa7a789af-f977-4d2b-853d-8ad9e2d8f708
p3780
aVa813d3b2-8007-43c9-87dd-11cfe6f50854
p3781
aVa9559316-c106-43bd-8937-4b76983b65cb
p3782
aVaa316088-b8d5-4ce8-8305-0cd6f0c5a38f
p3783
aVabf7bc11-f5c2-4cd7-8094-1ae3a0615730
p3784
aVad2f0c6d-f78b-461b-84cf-177d9345d961
p3785
aVadd73ac2-609e-451a-8b26-786bc4755e74
p3786
aVae214248-696e-4f68-8fe3-45bc24289542
p3787
aVb12ff6c0-045c-450e-896b-d5ae62b7bf03
p3788
aVb2645d42-b4bb-4e17-825e-9e9777f3a9a7
p3789
aVb2fc230f-9687-42d2-8e8c-c8c5dfd24c8d
p3790
aVb30b3367-2b22-4768-8b17-76d23e7cb690
p3791
aVb3b39b27-b5ce-4593-8a07-dab29659e73e
p3792
aVb3b9c2dd-fbf2-4e92-8bc0-4ccdd6ac8823
p3793
aVb41f1634-3134-407c-88f6-1ca5fe0088f3
p3794
aVb4d5fc2b-b2d1-4eca-8741-a88e391c16f1
p3795
aVb4f682ec-c313-4467-8cc2-9c52c4936458
p3796
aVb59bb8d2-d2eb-4e42-8bf0-10b97920e006
p3797
aVb5e42356-2644-494d-8abb-27c06e3897e3
p3798
aVb62a7382-fa2c-483c-8241-0795106534c5
p3799
aVb6977f7c-868c-4107-8142-6570f08be782
p3800
aVb747c90c-44f4-47b1-8bff-8c2c2edabaee
p3801
aVb77b101f-c00b-4ae8-8ff9-195bbfdee559
p3802
aVb83bb5fe-bb40-4690-861f-94cd829ea82b
p3803
aVb85f0e37-3811-4b7a-88d8-3812d220fd00
p3804
aVb8702709-1df2-4a11-836a-5da78bc14af8
p3805
aVb87e695d-7bbf-4836-8b4b-5e3c87ff2682
p3806
aVb8a7a5d4-cdbf-4007-8e98-02ec7ca8a999
p3807
aVb8da56fb-18fb-42a5-841c-437c9e6bcc46
p3808
aVba56b45e-364e-46fd-8458-6ac141965ea2
p3809
aVba58e6a3-5297-4553-8302-995faa2cd0f4
p3810
aVbadf36fe-230c-4ec3-8fa6-a1d8150be7af
p3811
aVbb6c559e-68f3-4134-8b80-60a09994dca8
p3812
aVbb96276f-7bb1-4454-8cf7-e12bc4ab46ed
p3813
aVbb9e14f2-aea8-4c2d-8035-9c87754f25c9
p3814
aVbc14a362-ff95-4a88-8717-256a922a910a
p3815
aVbc8caa46-3912-4057-84b3-7c962791d75a
p3816
aVbcafc51f-a1af-46ae-84e0-be9c0c3bf5d3
p3817
aVbd3fb0ca-5933-4135-8eb1-521976a9ca32
p3818
aVbd46c549-09be-422c-87ea-4c4bec3ca008
p3819
aVbd852fb1-75ff-4def-8746-a8d3da2ff29e
p3820
aVbda730d0-f116-4a0e-8470-afb663da9df4
p3821
aVbe2155d0-de26-4405-83fe-9210c51cc8f0
p3822
aVbe44dad7-d9e3-44f2-805b-9ff24688dab1
p3823
aVbe7cc4cd-5037-4623-8b6e-fe5a71c8145d
p3824
aVbf089021-69a6-4507-82bc-897de5b18749
p3825
aVc044c193-a3bb-4fa8-8253-dc83e8ac81e7
p3826
aVc0a16099-8b9a-42c0-895b-7476181db9b3
p3827
aVc0cf86ac-cedc-431b-8983-c0ffa0065ba3
p3828
aVc0feb4f5-66c2-4b8f-806d-006f01f4a879
p3829
aVc22fdd71-9eef-463f-8be2-81ac5e8124a6
p3830
aVc272b7ba-421a-4d1e-8337-7d1a23979927
p3831
aVc2bbaa8b-d0c1-4e2c-814a-2a3368fe2de4
p3832
aVc306dbee-caa3-468e-89f7-838b642b1f6d
p3833
aVc3175be5-43fb-4308-8cca-47ac9899e336
p3834
aVc3210e3f-3d48-4ed3-8a46-626ed8b7e325
p3835
aVc47fa06c-6525-4780-8347-a645a3b181ea
p3836
aVc5253211-b8ab-4c83-85d4-beaf377673b6
p3837
aVc60a6330-ae2a-4d09-8438-7bca620a58a7
p3838
aVc61889e3-1d00-4c40-8251-08e40cde11c2
p3839
aVc675298c-09fe-4fbd-856f-df868e09ede3
p3840
aVc8f59f3d-f484-4408-854b-d52a8021dc8f
p3841
aVc9227606-2176-4c4f-80fa-3b35b0156f33
p3842
aVcb544f15-c552-440c-8f01-025ec2c0291d
p3843
aVcb601ad9-4db8-4572-8bbd-2354bcf714a7
p3844
aVccdcb343-b4de-4704-8fe4-a6f50f102ce3
p3845
aVcdd2798e-8e82-4f7c-84c8-69c7ffa693b7
p3846
aVceb39875-47be-43f8-8436-ee52a1bbd044
p3847
aVcf07232d-d331-4319-8abb-0990ec346cc3
p3848
aVcf17f15d-e2da-4f1e-807d-489df9ffefa1
p3849
aVcf49e2d5-cba7-445c-8869-bb0978bbee0f
p3850
aVcf50db56-95b9-47d9-8e45-d42a3825ff9d
p3851
aVd044246f-1098-4858-8b63-365ce3203563
p3852
aVd14a4039-60a7-49bd-8c8f-40df919e2d7e
p3853
aVd1501351-c274-4db5-86d7-8ac9c6cf5dc1
p3854
aVd1964e0e-cb4d-49a2-829c-19c4d95ff753
p3855
aVd25d5971-545e-4e75-86e5-8a89eafeeb62
p3856
aVd26c861f-2680-4866-82ef-a51e49bd1047
p3857
aVd2942706-33e0-43d1-8f6b-b12d53689f4f
p3858
aVd2a0d401-7158-4c60-8ad9-9b1a83467cf6
p3859
aVd2d63e7f-234e-4cc5-8fec-abb8551e8ec4
p3860
aVd407fd83-c93e-470e-8675-35ae4bb5182a
p3861
aVd44a90ca-5f13-4c55-83ce-1ad0b63ef664
p3862
aVd5a85759-e0d8-4da2-8c48-ab568bf297e2
p3863
aVd5cbc45b-ae7b-49cd-8456-8b5a387ff059
p3864
aVd5d577f5-9045-40d1-8103-e13b3f10661c
p3865
aVd5dc3381-0c54-4560-8952-00fbf24dd7dd
p3866
aVd635ff7d-0512-475c-8233-d19faa36d4f4
p3867
aVd63612da-58bd-441d-8e9e-2614e2ff6599
p3868
aVd660b20e-e174-45db-8a9c-e5c2f93e4ef9
p3869
aVd689ac24-bdad-4688-8d08-0988b9074ad6
p3870
aVd6c90015-9e44-497e-8f80-2c0795b382cc
p3871
aVd71f2970-8206-4627-8fdf-3a53db110321
p3872
aVd74914f4-691a-4a76-83a0-6b46d85b2989
p3873
aVd75569d4-dea0-430a-8b19-a02fdd836a5d
p3874
aVd8d421ba-9abe-4ee7-8936-24309d7059e5
p3875
aVd8dff7ca-95ec-46dd-8e66-ee5614752c7e
p3876
aVd977e608-5754-429a-8b2a-619db37502f1
p3877
aVd98158f8-8f6a-44f6-854e-9fa3a2090938
p3878
aVd9855e55-87dd-4579-8015-3f8b42be7b56
p3879
aVd99f897f-c4ec-4588-81f2-36f784677a4b
p3880
aVd9a878b0-5adb-45f7-800c-9f81e074637a
p3881
aVd9c44169-a42d-402c-8606-7c35af58139b
p3882
aVda1d3c0a-b16d-4ceb-8ca1-bf644dec2db2
p3883
aVdaba1cc5-4061-4a28-8fec-7cabd325b242
p3884
aVdaf434d4-8939-4bfb-8274-72a7b050ed73
p3885
aVdb4ce4ac-f10b-441c-8e53-719ed5941c52
p3886
aVdb652473-a72c-4962-843b-cbff7d7b5b71
p3887
aVdd9f11d6-4812-4b2f-8863-00805d3444d4
p3888
aVde5f9a66-5fbd-4986-8640-7e6f3251a1ad
p3889
aVdf1435c8-a5b6-47f2-8d2f-172c50a88d05
p3890
aVdf2e4a13-ac5a-46ed-84db-36c08c2fee53
p3891
aVdf526e5b-d885-4063-8838-a78161bafcdd
p3892
aVe077f10b-0c99-49ef-8190-3059b4c07623
p3893
aVe11b3237-0a54-4586-8272-5e4a002fb6c7
p3894
aVe151e585-ef8c-4589-8a06-dc0765046e44
p3895
aVe2311898-d062-4134-8e81-abae6631a72c
p3896
aVe303f8a3-1086-4f31-8285-56908b7905c2
p3897
aVe325ea49-7a2c-4a50-82f9-e1ab9d5d644d
p3898
aVe3586bbf-93b8-40e8-8b5a-14023e1e705e
p3899
aVe359801f-0f1a-4b80-8d6e-01785fc31058
p3900
aVe37f0fd5-ab31-4ada-8d46-2c20f2a61b24
p3901
aVe3991a4a-81cc-4c7f-8ff5-598457843ee1
p3902
aVe3ac91be-dc32-4f61-8bbb-48f377c51082
p3903
aVe400f5af-9d7c-4fbb-833e-7b204fc0b8d4
p3904
aVe4f4aca5-bc3c-40b0-8c28-c5a736c847b7
p3905
aVe54eca57-0f76-440f-83e4-a041a554e804
p3906
aVe5b51201-f04c-406f-856d-1ae824f1287f
p3907
aVe68f1112-18dc-4c82-8539-e04a23515243
p3908
aVe6af1330-95a1-430d-8d7b-d278d66048db
p3909
aVe6b43bc1-ab3c-4ce6-8e59-b973ade1dd59
p3910
aVe75bad6a-7ce4-4c13-8bac-81a230d144eb
p3911
aVe7f0ed47-a6d7-4872-8963-d13495e8c98d
p3912
aVe83f70de-369d-4eeb-822f-75e3f271f19b
p3913
aVe873c93b-5a85-4a8b-84ce-c2ba876467fe
p3914
aVe888fb64-eddf-4e07-8bcd-0a3841bd29af
p3915
aVe8cb71cc-fa51-42f3-8b6a-d7bb3bd4800e
p3916
aVe9c222ab-675a-4218-8925-b51674484d08
p3917
aVea58148c-80a5-4645-86f8-5a50617a8bf4
p3918
aVeabfb883-6b6e-411e-8508-d3a134848fca
p3919
aVecbbc6fb-90d4-43f3-836a-d13b7210656f
p3920
aVecf025e5-3131-4e65-8896-0a1fdf827eaf
p3921
aVedda3376-2a23-4ffd-8b34-a7a6958e87b6
p3922
aVee1d16a2-d643-4f4b-899d-2744aa6e305a
p3923
aVeef087da-1f95-4af4-819e-a303e7fe5dfb
p3924
aVf0b40293-3275-4d8f-8fee-77ad8a22c19c
p3925
aVf0e96fb0-f995-4c72-87b3-01dfd8891bd4
p3926
aVf17bfb47-7221-479e-8cb4-77a0fe05b9ff
p3927
aVf189c992-529b-4abd-8368-a1aed9ca1bbe
p3928
aVf1acf557-57a5-4336-84ec-d0f5078eb094
p3929
aVf1d3abf8-8a6d-4e83-8adf-8e95d1ad98b6
p3930
aVf20bceee-f49d-49d3-86fd-08380405547b
p3931
aVf24a661c-f45a-41f4-8d52-291fbdfb9e90
p3932
aVf24d548a-d2ea-4a2d-838a-69f2287a63ac
p3933
aVf299cc77-d576-4c53-8975-bfa24ff45dc6
p3934
aVf2f594a3-ddea-4d25-87b5-6169b72767c7
p3935
aVf3a82190-2f95-45cd-8ed3-40c7aa04f021
p3936
aVf3f58f77-34bc-437d-8ac7-a9e28f6cc164
p3937
aVf4b9833c-2251-41f9-840c-04d18e8ff454
p3938
aVf4c192ed-18a3-43b1-8979-d4b9d991a024
p3939
aVf5e97d03-e449-4de0-86fd-f148efd5a510
p3940
aVf5fd3ef3-5ebd-4fc6-8077-d6ca8caf05aa
p3941
aVf6084c24-2148-46d6-80ab-be4ee876bf10
p3942
aVf6ca3ee0-c657-40c0-849f-da4eb6155afa
p3943
aVf75327fb-6c07-4462-8719-d3f8c03178ae
p3944
aVf7fc381f-0a7e-4233-8898-dcb2a592641b
p3945
aVf81ba264-f5d2-4362-8468-c309f8814d7a
p3946
aVf928a107-0013-4b30-822b-f811fd5e5831
p3947
aVf93df265-80f9-4c6b-820b-f9d740e1b888
p3948
aVf961ce7a-0410-419c-845d-d44ff07f82e5
p3949
aVf96f54d8-5284-4bfc-8b91-11cb4c94b68e
p3950
aVf9e45faf-15d5-43bd-8e1c-ff989c96dfeb
p3951
aVfae2154b-76fd-4ac5-8b67-1984f2289261
p3952
aVfb1b47bf-cfea-48cb-8e01-0dd8b55d6c0a
p3953
aVfb29cfb1-e447-41c4-82b3-95a20813a234
p3954
aVfc4ad8fe-4218-4447-846a-2a848fb54cb0
p3955
aVfef477ac-b227-4814-8972-d181b04f34d1
p3956
a.